Component: Arm Compiler for Embedded 6.19 Tool: armlink [5e73cb00]

==============================================================================

Section Cross References

    main.o(.text.main) refers to qf_port.o(.text.QF_init) for QF_init
    main.o(.text.main) refers to main.o(.bss.main.smlPoolSto) for main.smlPoolSto
    main.o(.text.main) refers to qf_dyn.o(.text.QF_poolInit) for QF_poolInit
    main.o(.text.main) refers to bsp_system.o(.text.bsp_system_init) for bsp_system_init
    main.o(.text.main) refers to bsp_gpio.o(.text.bsp_gpio_user_key_init) for bsp_gpio_user_key_init
    main.o(.text.main) refers to bsp_gpio.o(.text.bsp_gpio_PB0_init) for bsp_gpio_PB0_init
    main.o(.text.main) refers to bsp_gpio.o(.text.bsp_gpio_PB1_init) for bsp_gpio_PB1_init
    main.o(.text.main) refers to bsp_gpio.o(.text.bsp_gpio_PB10_init) for bsp_gpio_PB10_init
    main.o(.text.main) refers to bsp_i2c.o(.text.bsp_i2c_init) for bsp_i2c_init
    main.o(.text.main) refers to veml6040.o(.text.veml6040_init) for veml6040_init
    main.o(.text.main) refers to sdd1306.o(.text.sdd1306_init) for sdd1306_init
    main.o(.text.main) refers to central.o(.text.Central_ctor) for Central_ctor
    main.o(.text.main) refers to central.o(.rodata.AO_Central) for AO_Central
    main.o(.text.main) refers to main.o(.bss.main.centralStack) for main.centralStack
    main.o(.text.main) refers to main.o(.bss.main.central_queueSto) for main.central_queueSto
    main.o(.text.main) refers to qf_port.o(.text.QActive_start_) for QActive_start_
    main.o(.text.main) refers to qf_port.o(.text.QF_run) for QF_run
    main.o(.ARM.exidx.text.main) refers to main.o(.text.main) for [Anonymous Symbol]
    main.o(.text.DebounceSwitch) refers to main.o(.bss.DebounceSwitch.State) for DebounceSwitch.State
    main.o(.text.DebounceSwitch) refers to bsp_gpio.o(.text.bsp_gpio_user_key_get_state) for bsp_gpio_user_key_get_state
    main.o(.ARM.exidx.text.DebounceSwitch) refers to main.o(.text.DebounceSwitch) for [Anonymous Symbol]
    main.o(.text.DebounceSwitch2) refers to main.o(.bss.DebounceSwitch2.State) for DebounceSwitch2.State
    main.o(.text.DebounceSwitch2) refers to bsp_gpio.o(.text.bsp_gpio_PB1_get_state) for bsp_gpio_PB1_get_state
    main.o(.ARM.exidx.text.DebounceSwitch2) refers to main.o(.text.DebounceSwitch2) for [Anonymous Symbol]
    main.o(.text.DebounceSwitch3) refers to main.o(.bss.DebounceSwitch3.State) for DebounceSwitch3.State
    main.o(.text.DebounceSwitch3) refers to bsp_gpio.o(.text.bsp_gpio_PB0_get_state) for bsp_gpio_PB0_get_state
    main.o(.ARM.exidx.text.DebounceSwitch3) refers to main.o(.text.DebounceSwitch3) for [Anonymous Symbol]
    main.o(.text.App_TimeTickHook) refers to qf_time.o(.text.QTimeEvt_tick_) for QTimeEvt_tick_
    main.o(.text.App_TimeTickHook) refers to main.o(.text.DebounceSwitch) for DebounceSwitch
    main.o(.text.App_TimeTickHook) refers to qf_dyn.o(.text.QF_newX_) for QF_newX_
    main.o(.text.App_TimeTickHook) refers to central.o(.rodata.AO_Central) for AO_Central
    main.o(.text.App_TimeTickHook) refers to qf_port.o(.text.QActive_post_) for QActive_post_
    main.o(.text.App_TimeTickHook) refers to main.o(.text.DebounceSwitch2) for DebounceSwitch2
    main.o(.text.App_TimeTickHook) refers to main.o(.text.DebounceSwitch3) for DebounceSwitch3
    main.o(.ARM.exidx.text.App_TimeTickHook) refers to main.o(.text.App_TimeTickHook) for [Anonymous Symbol]
    stm32f4xx_it.o(.ARM.exidx.text.NMI_Handler) refers to stm32f4xx_it.o(.text.NMI_Handler) for [Anonymous Symbol]
    stm32f4xx_it.o(.ARM.exidx.text.HardFault_Handler) refers to stm32f4xx_it.o(.text.HardFault_Handler) for [Anonymous Symbol]
    stm32f4xx_it.o(.ARM.exidx.text.MemManage_Handler) refers to stm32f4xx_it.o(.text.MemManage_Handler) for [Anonymous Symbol]
    stm32f4xx_it.o(.ARM.exidx.text.BusFault_Handler) refers to stm32f4xx_it.o(.text.BusFault_Handler) for [Anonymous Symbol]
    stm32f4xx_it.o(.ARM.exidx.text.UsageFault_Handler) refers to stm32f4xx_it.o(.text.UsageFault_Handler) for [Anonymous Symbol]
    stm32f4xx_it.o(.ARM.exidx.text.SVC_Handler) refers to stm32f4xx_it.o(.text.SVC_Handler) for [Anonymous Symbol]
    stm32f4xx_it.o(.ARM.exidx.text.DebugMon_Handler) refers to stm32f4xx_it.o(.text.DebugMon_Handler) for [Anonymous Symbol]
    stm32f4xx_it.o(.ARM.exidx.text.PendSV_Handler) refers to stm32f4xx_it.o(.text.PendSV_Handler) for [Anonymous Symbol]
    stm32f4xx_it.o(.ARM.exidx.text.SysTick_Handler) refers to stm32f4xx_it.o(.text.SysTick_Handler) for [Anonymous Symbol]
    stm32f4xx_it.o(.ARM.exidx.text.EXTI15_10_IRQHandler) refers to stm32f4xx_it.o(.text.EXTI15_10_IRQHandler) for [Anonymous Symbol]
    stm32f4xx_it.o(.ARM.exidx.text.OTG_FS_IRQHandler) refers to stm32f4xx_it.o(.text.OTG_FS_IRQHandler) for [Anonymous Symbol]
    stm32f4xx_it.o(.ARM.exidx.text.EXTI0_IRQHandler) refers to stm32f4xx_it.o(.text.EXTI0_IRQHandler) for [Anonymous Symbol]
    app.o(.ARM.exidx.text.QF_onStartup) refers to app.o(.text.QF_onStartup) for [Anonymous Symbol]
    app.o(.ARM.exidx.text.QF_onCleanup) refers to app.o(.text.QF_onCleanup) for [Anonymous Symbol]
    app.o(.text.QF_onClockTick) refers to qf_time.o(.text.QTimeEvt_tick_) for QTimeEvt_tick_
    app.o(.ARM.exidx.text.QF_onClockTick) refers to app.o(.text.QF_onClockTick) for [Anonymous Symbol]
    app.o(.text.Q_onError) refers to exit.o(.text) for exit
    app.o(.ARM.exidx.text.Q_onError) refers to app.o(.text.Q_onError) for [Anonymous Symbol]
    central.o(.text.Central_ctor) refers to central.o(.bss.l_central) for l_central
    central.o(.text.Central_ctor) refers to central.o(.text.Central_initial) for Central_initial
    central.o(.text.Central_ctor) refers to qf_qact.o(.text.QActive_ctor) for QActive_ctor
    central.o(.text.Central_ctor) refers to tickerkeeper.o(.text.TickerKeeper_ctor) for TickerKeeper_ctor
    central.o(.ARM.exidx.text.Central_ctor) refers to central.o(.text.Central_ctor) for [Anonymous Symbol]
    central.o(.text.Central_initial) refers to os_cpu_a.o(.text) for OS_CPU_SR_Save
    central.o(.text.Central_initial) refers to central.o(.rodata.Q_this_module_) for Q_this_module_
    central.o(.text.Central_initial) refers to app.o(.text.Q_onError) for Q_onError
    central.o(.text.Central_initial) refers to bsp_gpio.o(.text.bsp_gpio_PA7_set) for bsp_gpio_PA7_set
    central.o(.text.Central_initial) refers to bsp_gpio.o(.text.bsp_gpio_PA7_reset) for bsp_gpio_PA7_reset
    central.o(.text.Central_initial) refers to central.o(.text.Central_started) for Central_started
    central.o(.ARM.exidx.text.Central_initial) refers to central.o(.text.Central_initial) for [Anonymous Symbol]
    central.o(.text.Central_started) refers to central.o(.rodata.font16x16) for font16x16
    central.o(.text.Central_started) refers to sdd1306.o(.text.sdd1306_draw) for sdd1306_draw
    central.o(.text.Central_started) refers to central.o(.text.Central_percentdata) for Central_percentdata
    central.o(.text.Central_started) refers to bsp_gpio.o(.text.bsp_gpio_PB10_reset) for bsp_gpio_PB10_reset
    central.o(.text.Central_started) refers to bsp_gpio.o(.text.bsp_gpio_PB10_set) for bsp_gpio_PB10_set
    central.o(.text.Central_started) refers to veml6040.o(.text.veml6040_get_data_raw) for veml6040_get_data_raw
    central.o(.text.Central_started) refers to central.o(.text.calculateHue) for calculateHue
    central.o(.text.Central_started) refers to qep_hsm.o(.text.QHsm_top) for QHsm_top
    central.o(.ARM.exidx.text.Central_started) refers to central.o(.text.Central_started) for [Anonymous Symbol]
    central.o(.text.Central_percentdata) refers to central.o(.rodata.font16x16) for font16x16
    central.o(.text.Central_percentdata) refers to sdd1306.o(.text.sdd1306_draw) for sdd1306_draw
    central.o(.text.Central_percentdata) refers to qf_dyn.o(.text.QF_newX_) for QF_newX_
    central.o(.text.Central_percentdata) refers to qf_port.o(.text.QActive_post_) for QActive_post_
    central.o(.text.Central_percentdata) refers to sdd1306.o(.text.sdd1306_clear_area) for sdd1306_clear_area
    central.o(.text.Central_percentdata) refers to central.o(.text.Central_rawdata) for Central_rawdata
    central.o(.text.Central_percentdata) refers to central.o(.text.Central_started) for Central_started
    central.o(.ARM.exidx.text.Central_percentdata) refers to central.o(.text.Central_percentdata) for [Anonymous Symbol]
    central.o(.ARM.exidx.text.calculateHue) refers to central.o(.text.calculateHue) for [Anonymous Symbol]
    central.o(.text.Central_rawdata) refers to central.o(.rodata.font16x16) for font16x16
    central.o(.text.Central_rawdata) refers to sdd1306.o(.text.sdd1306_draw) for sdd1306_draw
    central.o(.text.Central_rawdata) refers to qf_dyn.o(.text.QF_newX_) for QF_newX_
    central.o(.text.Central_rawdata) refers to qf_port.o(.text.QActive_post_) for QActive_post_
    central.o(.text.Central_rawdata) refers to sdd1306.o(.text.sdd1306_clear_area) for sdd1306_clear_area
    central.o(.text.Central_rawdata) refers to central.o(.text.Central_percentdata) for Central_percentdata
    central.o(.text.Central_rawdata) refers to central.o(.text.Central_started) for Central_started
    central.o(.ARM.exidx.text.Central_rawdata) refers to central.o(.text.Central_rawdata) for [Anonymous Symbol]
    central.o(.rodata.AO_Central) refers to central.o(.bss.l_central) for [Anonymous Symbol]
    tickerkeeper.o(.text.TickerKeeper_initial) refers to tickerkeeper.o(.text.TickerKeeper_running) for TickerKeeper_running
    tickerkeeper.o(.ARM.exidx.text.TickerKeeper_initial) refers to tickerkeeper.o(.text.TickerKeeper_initial) for [Anonymous Symbol]
    tickerkeeper.o(.text.TickerKeeper_running) refers to qf_time.o(.text.QTimeEvt_armX) for QTimeEvt_armX
    tickerkeeper.o(.text.TickerKeeper_running) refers to qf_time.o(.text.QTimeEvt_disarm) for QTimeEvt_disarm
    tickerkeeper.o(.text.TickerKeeper_running) refers to tickerkeeper.o(.text.TickerKeeper_paused) for TickerKeeper_paused
    tickerkeeper.o(.text.TickerKeeper_running) refers to qep_hsm.o(.text.QHsm_top) for QHsm_top
    tickerkeeper.o(.ARM.exidx.text.TickerKeeper_running) refers to tickerkeeper.o(.text.TickerKeeper_running) for [Anonymous Symbol]
    tickerkeeper.o(.text.TickerKeeper_paused) refers to tickerkeeper.o(.text.TickerKeeper_running) for TickerKeeper_running
    tickerkeeper.o(.text.TickerKeeper_paused) refers to qep_hsm.o(.text.QHsm_top) for QHsm_top
    tickerkeeper.o(.ARM.exidx.text.TickerKeeper_paused) refers to tickerkeeper.o(.text.TickerKeeper_paused) for [Anonymous Symbol]
    tickerkeeper.o(.text.TickerKeeper_ctor) refers to central.o(.rodata.AO_Central) for AO_Central
    tickerkeeper.o(.text.TickerKeeper_ctor) refers to tickerkeeper.o(.text.TickerKeeper_initial) for TickerKeeper_initial
    tickerkeeper.o(.text.TickerKeeper_ctor) refers to qep_hsm.o(.text.QHsm_ctor) for QHsm_ctor
    tickerkeeper.o(.text.TickerKeeper_ctor) refers to qf_time.o(.text.QTimeEvt_ctorX) for QTimeEvt_ctorX
    tickerkeeper.o(.ARM.exidx.text.TickerKeeper_ctor) refers to tickerkeeper.o(.text.TickerKeeper_ctor) for [Anonymous Symbol]
    bsp_gpio.o(.ARM.exidx.text.bsp_gpio_LED_init) refers to bsp_gpio.o(.text.bsp_gpio_LED_init) for [Anonymous Symbol]
    bsp_gpio.o(.ARM.exidx.text.bsp_gpio_LED_on) refers to bsp_gpio.o(.text.bsp_gpio_LED_on) for [Anonymous Symbol]
    bsp_gpio.o(.ARM.exidx.text.bsp_gpio_LED_off) refers to bsp_gpio.o(.text.bsp_gpio_LED_off) for [Anonymous Symbol]
    bsp_gpio.o(.ARM.exidx.text.bsp_gpio_user_key_init) refers to bsp_gpio.o(.text.bsp_gpio_user_key_init) for [Anonymous Symbol]
    bsp_gpio.o(.text.bsp_gpio_user_key_it_init) refers to bsp_gpio.o(.text.__NVIC_SetPriority) for __NVIC_SetPriority
    bsp_gpio.o(.text.bsp_gpio_user_key_it_init) refers to bsp_gpio.o(.text.__NVIC_EnableIRQ) for __NVIC_EnableIRQ
    bsp_gpio.o(.ARM.exidx.text.bsp_gpio_user_key_it_init) refers to bsp_gpio.o(.text.bsp_gpio_user_key_it_init) for [Anonymous Symbol]
    bsp_gpio.o(.ARM.exidx.text.__NVIC_SetPriority) refers to bsp_gpio.o(.text.__NVIC_SetPriority) for [Anonymous Symbol]
    bsp_gpio.o(.ARM.exidx.text.__NVIC_EnableIRQ) refers to bsp_gpio.o(.text.__NVIC_EnableIRQ) for [Anonymous Symbol]
    bsp_gpio.o(.ARM.exidx.text.bsp_gpio_user_key_get_state) refers to bsp_gpio.o(.text.bsp_gpio_user_key_get_state) for [Anonymous Symbol]
    bsp_gpio.o(.ARM.exidx.text.bsp_gpio_PA7_init) refers to bsp_gpio.o(.text.bsp_gpio_PA7_init) for [Anonymous Symbol]
    bsp_gpio.o(.ARM.exidx.text.bsp_gpio_PA7_set) refers to bsp_gpio.o(.text.bsp_gpio_PA7_set) for [Anonymous Symbol]
    bsp_gpio.o(.ARM.exidx.text.bsp_gpio_PA7_reset) refers to bsp_gpio.o(.text.bsp_gpio_PA7_reset) for [Anonymous Symbol]
    bsp_gpio.o(.ARM.exidx.text.bsp_gpio_PB10_init) refers to bsp_gpio.o(.text.bsp_gpio_PB10_init) for [Anonymous Symbol]
    bsp_gpio.o(.ARM.exidx.text.bsp_gpio_PB10_set) refers to bsp_gpio.o(.text.bsp_gpio_PB10_set) for [Anonymous Symbol]
    bsp_gpio.o(.ARM.exidx.text.bsp_gpio_PB10_reset) refers to bsp_gpio.o(.text.bsp_gpio_PB10_reset) for [Anonymous Symbol]
    bsp_gpio.o(.ARM.exidx.text.bsp_gpio_PA6_init) refers to bsp_gpio.o(.text.bsp_gpio_PA6_init) for [Anonymous Symbol]
    bsp_gpio.o(.ARM.exidx.text.bsp_gpio_PA6_set) refers to bsp_gpio.o(.text.bsp_gpio_PA6_set) for [Anonymous Symbol]
    bsp_gpio.o(.ARM.exidx.text.bsp_gpio_PA6_reset) refers to bsp_gpio.o(.text.bsp_gpio_PA6_reset) for [Anonymous Symbol]
    bsp_gpio.o(.ARM.exidx.text.bsp_gpio_PA6_get_state) refers to bsp_gpio.o(.text.bsp_gpio_PA6_get_state) for [Anonymous Symbol]
    bsp_gpio.o(.ARM.exidx.text.bsp_gpio_PB0_init) refers to bsp_gpio.o(.text.bsp_gpio_PB0_init) for [Anonymous Symbol]
    bsp_gpio.o(.ARM.exidx.text.bsp_gpio_PB0_set) refers to bsp_gpio.o(.text.bsp_gpio_PB0_set) for [Anonymous Symbol]
    bsp_gpio.o(.ARM.exidx.text.bsp_gpio_PB0_reset) refers to bsp_gpio.o(.text.bsp_gpio_PB0_reset) for [Anonymous Symbol]
    bsp_gpio.o(.ARM.exidx.text.bsp_gpio_PB0_get_state) refers to bsp_gpio.o(.text.bsp_gpio_PB0_get_state) for [Anonymous Symbol]
    bsp_gpio.o(.ARM.exidx.text.bsp_gpio_PB1_init) refers to bsp_gpio.o(.text.bsp_gpio_PB1_init) for [Anonymous Symbol]
    bsp_gpio.o(.ARM.exidx.text.bsp_gpio_PB1_set) refers to bsp_gpio.o(.text.bsp_gpio_PB1_set) for [Anonymous Symbol]
    bsp_gpio.o(.ARM.exidx.text.bsp_gpio_PB1_reset) refers to bsp_gpio.o(.text.bsp_gpio_PB1_reset) for [Anonymous Symbol]
    bsp_gpio.o(.ARM.exidx.text.bsp_gpio_PB1_get_state) refers to bsp_gpio.o(.text.bsp_gpio_PB1_get_state) for [Anonymous Symbol]
    bsp_i2c.o(.text.bsp_i2c_init) refers to system_stm32f4xx.o(.rodata.APBPrescTable) for APBPrescTable
    bsp_i2c.o(.text.bsp_i2c_init) refers to system_stm32f4xx.o(.data.SystemCoreClock) for SystemCoreClock
    bsp_i2c.o(.ARM.exidx.text.bsp_i2c_init) refers to bsp_i2c.o(.text.bsp_i2c_init) for [Anonymous Symbol]
    bsp_i2c.o(.text.bsp_i2c_master_transfer) refers to bsp_i2c.o(.text.bsp_i2c_init) for bsp_i2c_init
    bsp_i2c.o(.ARM.exidx.text.bsp_i2c_master_transfer) refers to bsp_i2c.o(.text.bsp_i2c_master_transfer) for [Anonymous Symbol]
    bsp_i2c.o(.text.bsp_i2c_master_receive) refers to bsp_i2c.o(.text.bsp_i2c_init) for bsp_i2c_init
    bsp_i2c.o(.ARM.exidx.text.bsp_i2c_master_receive) refers to bsp_i2c.o(.text.bsp_i2c_master_receive) for [Anonymous Symbol]
    bsp_i2c.o(.text.bsp_i2c_master_receive_reg) refers to bsp_i2c.o(.text.bsp_i2c_init) for bsp_i2c_init
    bsp_i2c.o(.text.bsp_i2c_master_receive_reg) refers to bsp_i2c.o(.text.bsp_i2c_master_receive) for bsp_i2c_master_receive
    bsp_i2c.o(.ARM.exidx.text.bsp_i2c_master_receive_reg) refers to bsp_i2c.o(.text.bsp_i2c_master_receive_reg) for [Anonymous Symbol]
    bsp_system.o(.text.bsp_system_init) refers to bsp_system.o(.text.bsp_flash_init) for bsp_flash_init
    bsp_system.o(.text.bsp_system_init) refers to bsp_system.o(.text.bsp_rcc_clock_init) for bsp_rcc_clock_init
    bsp_system.o(.text.bsp_system_init) refers to bsp_system.o(.text.bsp_systick_init) for bsp_systick_init
    bsp_system.o(.ARM.exidx.text.bsp_system_init) refers to bsp_system.o(.text.bsp_system_init) for [Anonymous Symbol]
    bsp_system.o(.text.bsp_flash_init) refers to bsp_system.o(.bss.tmpreg) for tmpreg
    bsp_system.o(.ARM.exidx.text.bsp_flash_init) refers to bsp_system.o(.text.bsp_flash_init) for [Anonymous Symbol]
    bsp_system.o(.text.bsp_rcc_clock_init) refers to bsp_system.o(.bss.tmpreg) for tmpreg
    bsp_system.o(.text.bsp_rcc_clock_init) refers to system_stm32f4xx.o(.text.SystemCoreClockUpdate) for SystemCoreClockUpdate
    bsp_system.o(.ARM.exidx.text.bsp_rcc_clock_init) refers to bsp_system.o(.text.bsp_rcc_clock_init) for [Anonymous Symbol]
    bsp_system.o(.text.bsp_systick_init) refers to system_stm32f4xx.o(.data.SystemCoreClock) for SystemCoreClock
    bsp_system.o(.text.bsp_systick_init) refers to bsp_system.o(.bss.tmpreg) for tmpreg
    bsp_system.o(.ARM.exidx.text.bsp_systick_init) refers to bsp_system.o(.text.bsp_systick_init) for [Anonymous Symbol]
    bsp_spi.o(.text.bsp_spi_init) refers to h1_alloc.o(.text) for malloc
    bsp_spi.o(.text.bsp_spi_init) refers to bsp_spi.o(.bss.SPIUtil) for SPIUtil
    bsp_spi.o(.text.bsp_spi_init) refers to bsp_spi.o(.text.__NVIC_EnableIRQ) for __NVIC_EnableIRQ
    bsp_spi.o(.ARM.exidx.text.bsp_spi_init) refers to bsp_spi.o(.text.bsp_spi_init) for [Anonymous Symbol]
    bsp_spi.o(.ARM.exidx.text.__NVIC_EnableIRQ) refers to bsp_spi.o(.text.__NVIC_EnableIRQ) for [Anonymous Symbol]
    bsp_spi.o(.text.bsp_spi_transmit_dma) refers to bsp_spi.o(.bss.SPIUtil) for SPIUtil
    bsp_spi.o(.ARM.exidx.text.bsp_spi_transmit_dma) refers to bsp_spi.o(.text.bsp_spi_transmit_dma) for [Anonymous Symbol]
    bsp_spi.o(.text.bsp_spi_transmit_receive_dma) refers to bsp_spi.o(.bss.SPIUtil) for SPIUtil
    bsp_spi.o(.ARM.exidx.text.bsp_spi_transmit_receive_dma) refers to bsp_spi.o(.text.bsp_spi_transmit_receive_dma) for [Anonymous Symbol]
    bsp_spi.o(.text.DMA2_Stream3_IRQHandler) refers to bsp_spi.o(.bss.SPIUtil) for SPIUtil
    bsp_spi.o(.ARM.exidx.text.DMA2_Stream3_IRQHandler) refers to bsp_spi.o(.text.DMA2_Stream3_IRQHandler) for [Anonymous Symbol]
    bsp_spi.o(.text.DMA2_Stream2_IRQHandler) refers to bsp_spi.o(.bss.SPIUtil) for SPIUtil
    bsp_spi.o(.ARM.exidx.text.DMA2_Stream2_IRQHandler) refers to bsp_spi.o(.text.DMA2_Stream2_IRQHandler) for [Anonymous Symbol]
    bsp_spi.o(.text.bsp_spi_register_transfer_complete_callback) refers to bsp_spi.o(.bss.SPIUtil) for SPIUtil
    bsp_spi.o(.ARM.exidx.text.bsp_spi_register_transfer_complete_callback) refers to bsp_spi.o(.text.bsp_spi_register_transfer_complete_callback) for [Anonymous Symbol]
    bsp_spi.o(.text.bsp_spi_register_transfer_error_callback) refers to bsp_spi.o(.bss.SPIUtil) for SPIUtil
    bsp_spi.o(.ARM.exidx.text.bsp_spi_register_transfer_error_callback) refers to bsp_spi.o(.text.bsp_spi_register_transfer_error_callback) for [Anonymous Symbol]
    os_core.o(.text.OSEventNameGet) refers to os_core.o(.bss.OSIntNesting) for OSIntNesting
    os_core.o(.text.OSEventNameGet) refers to os_cpu_a.o(.text) for OS_CPU_SR_Save
    os_core.o(.text.OSEventNameGet) refers to os_core.o(.text.OS_StrLen) for OS_StrLen
    os_core.o(.ARM.exidx.text.OSEventNameGet) refers to os_core.o(.text.OSEventNameGet) for [Anonymous Symbol]
    os_core.o(.ARM.exidx.text.OS_StrLen) refers to os_core.o(.text.OS_StrLen) for [Anonymous Symbol]
    os_core.o(.text.OSEventNameSet) refers to os_core.o(.bss.OSIntNesting) for OSIntNesting
    os_core.o(.text.OSEventNameSet) refers to os_cpu_a.o(.text) for OS_CPU_SR_Save
    os_core.o(.ARM.exidx.text.OSEventNameSet) refers to os_core.o(.text.OSEventNameSet) for [Anonymous Symbol]
    os_core.o(.text.OSEventPendMulti) refers to os_core.o(.bss.OSIntNesting) for OSIntNesting
    os_core.o(.text.OSEventPendMulti) refers to os_core.o(.bss.OSLockNesting) for OSLockNesting
    os_core.o(.text.OSEventPendMulti) refers to os_cpu_a.o(.text) for OS_CPU_SR_Save
    os_core.o(.text.OSEventPendMulti) refers to os_core.o(.bss.OSTCBCur) for OSTCBCur
    os_core.o(.text.OSEventPendMulti) refers to os_core.o(.text.OS_EventTaskWaitMulti) for OS_EventTaskWaitMulti
    os_core.o(.text.OSEventPendMulti) refers to os_core.o(.text.OS_Sched) for OS_Sched
    os_core.o(.text.OSEventPendMulti) refers to os_core.o(.text.OS_EventTaskRemoveMulti) for OS_EventTaskRemoveMulti
    os_core.o(.ARM.exidx.text.OSEventPendMulti) refers to os_core.o(.text.OSEventPendMulti) for [Anonymous Symbol]
    os_core.o(.text.OS_EventTaskWaitMulti) refers to os_core.o(.bss.OSTCBCur) for OSTCBCur
    os_core.o(.text.OS_EventTaskWaitMulti) refers to os_core.o(.bss.OSRdyTbl) for OSRdyTbl
    os_core.o(.text.OS_EventTaskWaitMulti) refers to os_core.o(.bss.OSRdyGrp) for OSRdyGrp
    os_core.o(.ARM.exidx.text.OS_EventTaskWaitMulti) refers to os_core.o(.text.OS_EventTaskWaitMulti) for [Anonymous Symbol]
    os_core.o(.text.OS_Sched) refers to os_cpu_a.o(.text) for OS_CPU_SR_Save
    os_core.o(.text.OS_Sched) refers to os_core.o(.bss.OSIntNesting) for OSIntNesting
    os_core.o(.text.OS_Sched) refers to os_core.o(.bss.OSLockNesting) for OSLockNesting
    os_core.o(.text.OS_Sched) refers to os_core.o(.text.OS_SchedNew) for OS_SchedNew
    os_core.o(.text.OS_Sched) refers to os_core.o(.bss.OSPrioHighRdy) for OSPrioHighRdy
    os_core.o(.text.OS_Sched) refers to os_core.o(.bss.OSTCBPrioTbl) for OSTCBPrioTbl
    os_core.o(.text.OS_Sched) refers to os_core.o(.bss.OSTCBHighRdy) for OSTCBHighRdy
    os_core.o(.text.OS_Sched) refers to os_core.o(.bss.OSPrioCur) for OSPrioCur
    os_core.o(.text.OS_Sched) refers to os_core.o(.bss.OSCtxSwCtr) for OSCtxSwCtr
    os_core.o(.ARM.exidx.text.OS_Sched) refers to os_core.o(.text.OS_Sched) for [Anonymous Symbol]
    os_core.o(.ARM.exidx.text.OS_EventTaskRemoveMulti) refers to os_core.o(.text.OS_EventTaskRemoveMulti) for [Anonymous Symbol]
    os_core.o(.text.OSInit) refers to os_cpu_c.o(.text.OSInitHookBegin) for OSInitHookBegin
    os_core.o(.text.OSInit) refers to os_core.o(.text.OS_InitMisc) for OS_InitMisc
    os_core.o(.text.OSInit) refers to os_core.o(.text.OS_InitRdyList) for OS_InitRdyList
    os_core.o(.text.OSInit) refers to os_core.o(.text.OS_InitTCBList) for OS_InitTCBList
    os_core.o(.text.OSInit) refers to os_core.o(.text.OS_InitEventList) for OS_InitEventList
    os_core.o(.text.OSInit) refers to os_flag.o(.text.OS_FlagInit) for OS_FlagInit
    os_core.o(.text.OSInit) refers to os_mem.o(.text.OS_MemInit) for OS_MemInit
    os_core.o(.text.OSInit) refers to os_q.o(.text.OS_QInit) for OS_QInit
    os_core.o(.text.OSInit) refers to os_core.o(.text.OS_InitTaskIdle) for OS_InitTaskIdle
    os_core.o(.text.OSInit) refers to os_core.o(.text.OS_InitTaskStat) for OS_InitTaskStat
    os_core.o(.text.OSInit) refers to os_cpu_c.o(.text.OSInitHookEnd) for OSInitHookEnd
    os_core.o(.ARM.exidx.text.OSInit) refers to os_core.o(.text.OSInit) for [Anonymous Symbol]
    os_core.o(.text.OS_InitMisc) refers to os_core.o(.bss.OSTime) for OSTime
    os_core.o(.text.OS_InitMisc) refers to os_core.o(.bss.OSIntNesting) for OSIntNesting
    os_core.o(.text.OS_InitMisc) refers to os_core.o(.bss.OSLockNesting) for OSLockNesting
    os_core.o(.text.OS_InitMisc) refers to os_core.o(.bss.OSTaskCtr) for OSTaskCtr
    os_core.o(.text.OS_InitMisc) refers to os_core.o(.bss.OSRunning) for OSRunning
    os_core.o(.text.OS_InitMisc) refers to os_core.o(.bss.OSCtxSwCtr) for OSCtxSwCtr
    os_core.o(.text.OS_InitMisc) refers to os_core.o(.bss.OSIdleCtr) for OSIdleCtr
    os_core.o(.text.OS_InitMisc) refers to os_core.o(.bss.OSIdleCtrRun) for OSIdleCtrRun
    os_core.o(.text.OS_InitMisc) refers to os_core.o(.bss.OSIdleCtrMax) for OSIdleCtrMax
    os_core.o(.text.OS_InitMisc) refers to os_core.o(.bss.OSStatRdy) for OSStatRdy
    os_core.o(.text.OS_InitMisc) refers to os_core.o(.bss.OSTaskRegNextAvailID) for OSTaskRegNextAvailID
    os_core.o(.ARM.exidx.text.OS_InitMisc) refers to os_core.o(.text.OS_InitMisc) for [Anonymous Symbol]
    os_core.o(.text.OS_InitRdyList) refers to os_core.o(.bss.OSRdyGrp) for OSRdyGrp
    os_core.o(.text.OS_InitRdyList) refers to os_core.o(.bss.OSRdyTbl) for OSRdyTbl
    os_core.o(.text.OS_InitRdyList) refers to os_core.o(.bss.OSPrioCur) for OSPrioCur
    os_core.o(.text.OS_InitRdyList) refers to os_core.o(.bss.OSPrioHighRdy) for OSPrioHighRdy
    os_core.o(.text.OS_InitRdyList) refers to os_core.o(.bss.OSTCBHighRdy) for OSTCBHighRdy
    os_core.o(.text.OS_InitRdyList) refers to os_core.o(.bss.OSTCBCur) for OSTCBCur
    os_core.o(.ARM.exidx.text.OS_InitRdyList) refers to os_core.o(.text.OS_InitRdyList) for [Anonymous Symbol]
    os_core.o(.text.OS_InitTCBList) refers to os_core.o(.bss.OSTCBTbl) for OSTCBTbl
    os_core.o(.text.OS_InitTCBList) refers to os_core.o(.text.OS_MemClr) for OS_MemClr
    os_core.o(.text.OS_InitTCBList) refers to os_core.o(.bss.OSTCBPrioTbl) for OSTCBPrioTbl
    os_core.o(.text.OS_InitTCBList) refers to os_core.o(.rodata.str1.1) for .L.str
    os_core.o(.text.OS_InitTCBList) refers to os_core.o(.bss.OSTCBList) for OSTCBList
    os_core.o(.text.OS_InitTCBList) refers to os_core.o(.bss.OSTCBFreeList) for OSTCBFreeList
    os_core.o(.ARM.exidx.text.OS_InitTCBList) refers to os_core.o(.text.OS_InitTCBList) for [Anonymous Symbol]
    os_core.o(.text.OS_InitEventList) refers to os_core.o(.bss.OSEventTbl) for OSEventTbl
    os_core.o(.text.OS_InitEventList) refers to os_core.o(.text.OS_MemClr) for OS_MemClr
    os_core.o(.text.OS_InitEventList) refers to os_core.o(.rodata.str1.1) for .L.str
    os_core.o(.text.OS_InitEventList) refers to os_core.o(.bss.OSEventFreeList) for OSEventFreeList
    os_core.o(.ARM.exidx.text.OS_InitEventList) refers to os_core.o(.text.OS_InitEventList) for [Anonymous Symbol]
    os_core.o(.text.OS_InitTaskIdle) refers to os_core.o(.bss.OSTaskIdleStk) for OSTaskIdleStk
    os_core.o(.text.OS_InitTaskIdle) refers to os_core.o(.text.OS_TaskIdle) for OS_TaskIdle
    os_core.o(.text.OS_InitTaskIdle) refers to os_task.o(.text.OSTaskCreateExt) for OSTaskCreateExt
    os_core.o(.text.OS_InitTaskIdle) refers to os_core.o(.rodata.str1.1) for .L.str.1
    os_core.o(.text.OS_InitTaskIdle) refers to os_task.o(.text.OSTaskNameSet) for OSTaskNameSet
    os_core.o(.ARM.exidx.text.OS_InitTaskIdle) refers to os_core.o(.text.OS_InitTaskIdle) for [Anonymous Symbol]
    os_core.o(.text.OS_InitTaskStat) refers to os_core.o(.bss.OSTaskStatStk) for OSTaskStatStk
    os_core.o(.text.OS_InitTaskStat) refers to os_core.o(.text.OS_TaskStat) for OS_TaskStat
    os_core.o(.text.OS_InitTaskStat) refers to os_task.o(.text.OSTaskCreateExt) for OSTaskCreateExt
    os_core.o(.text.OS_InitTaskStat) refers to os_core.o(.rodata.str1.1) for .L.str.2
    os_core.o(.text.OS_InitTaskStat) refers to os_task.o(.text.OSTaskNameSet) for OSTaskNameSet
    os_core.o(.ARM.exidx.text.OS_InitTaskStat) refers to os_core.o(.text.OS_InitTaskStat) for [Anonymous Symbol]
    os_core.o(.text.OSIntEnter) refers to os_core.o(.bss.OSRunning) for OSRunning
    os_core.o(.text.OSIntEnter) refers to os_core.o(.bss.OSIntNesting) for OSIntNesting
    os_core.o(.ARM.exidx.text.OSIntEnter) refers to os_core.o(.text.OSIntEnter) for [Anonymous Symbol]
    os_core.o(.text.OSIntExit) refers to os_core.o(.bss.OSRunning) for OSRunning
    os_core.o(.text.OSIntExit) refers to os_cpu_a.o(.text) for OS_CPU_SR_Save
    os_core.o(.text.OSIntExit) refers to os_core.o(.bss.OSIntNesting) for OSIntNesting
    os_core.o(.text.OSIntExit) refers to os_core.o(.bss.OSLockNesting) for OSLockNesting
    os_core.o(.text.OSIntExit) refers to os_core.o(.text.OS_SchedNew) for OS_SchedNew
    os_core.o(.text.OSIntExit) refers to os_core.o(.bss.OSPrioHighRdy) for OSPrioHighRdy
    os_core.o(.text.OSIntExit) refers to os_core.o(.bss.OSTCBPrioTbl) for OSTCBPrioTbl
    os_core.o(.text.OSIntExit) refers to os_core.o(.bss.OSTCBHighRdy) for OSTCBHighRdy
    os_core.o(.text.OSIntExit) refers to os_core.o(.bss.OSPrioCur) for OSPrioCur
    os_core.o(.text.OSIntExit) refers to os_core.o(.bss.OSCtxSwCtr) for OSCtxSwCtr
    os_core.o(.ARM.exidx.text.OSIntExit) refers to os_core.o(.text.OSIntExit) for [Anonymous Symbol]
    os_core.o(.text.OS_SchedNew) refers to os_core.o(.bss.OSRdyGrp) for OSRdyGrp
    os_core.o(.text.OS_SchedNew) refers to os_core.o(.rodata.OSUnMapTbl) for OSUnMapTbl
    os_core.o(.text.OS_SchedNew) refers to os_core.o(.bss.OSRdyTbl) for OSRdyTbl
    os_core.o(.text.OS_SchedNew) refers to os_core.o(.bss.OSPrioHighRdy) for OSPrioHighRdy
    os_core.o(.ARM.exidx.text.OS_SchedNew) refers to os_core.o(.text.OS_SchedNew) for [Anonymous Symbol]
    os_core.o(.text.OSSchedLock) refers to os_core.o(.bss.OSRunning) for OSRunning
    os_core.o(.text.OSSchedLock) refers to os_cpu_a.o(.text) for OS_CPU_SR_Save
    os_core.o(.text.OSSchedLock) refers to os_core.o(.bss.OSIntNesting) for OSIntNesting
    os_core.o(.text.OSSchedLock) refers to os_core.o(.bss.OSLockNesting) for OSLockNesting
    os_core.o(.ARM.exidx.text.OSSchedLock) refers to os_core.o(.text.OSSchedLock) for [Anonymous Symbol]
    os_core.o(.text.OSSchedUnlock) refers to os_core.o(.bss.OSRunning) for OSRunning
    os_core.o(.text.OSSchedUnlock) refers to os_cpu_a.o(.text) for OS_CPU_SR_Save
    os_core.o(.text.OSSchedUnlock) refers to os_core.o(.bss.OSIntNesting) for OSIntNesting
    os_core.o(.text.OSSchedUnlock) refers to os_core.o(.bss.OSLockNesting) for OSLockNesting
    os_core.o(.text.OSSchedUnlock) refers to os_core.o(.text.OS_Sched) for OS_Sched
    os_core.o(.ARM.exidx.text.OSSchedUnlock) refers to os_core.o(.text.OSSchedUnlock) for [Anonymous Symbol]
    os_core.o(.text.OSStart) refers to os_core.o(.bss.OSRunning) for OSRunning
    os_core.o(.text.OSStart) refers to os_core.o(.text.OS_SchedNew) for OS_SchedNew
    os_core.o(.text.OSStart) refers to os_core.o(.bss.OSPrioHighRdy) for OSPrioHighRdy
    os_core.o(.text.OSStart) refers to os_core.o(.bss.OSPrioCur) for OSPrioCur
    os_core.o(.text.OSStart) refers to os_core.o(.bss.OSTCBPrioTbl) for OSTCBPrioTbl
    os_core.o(.text.OSStart) refers to os_core.o(.bss.OSTCBHighRdy) for OSTCBHighRdy
    os_core.o(.text.OSStart) refers to os_core.o(.bss.OSTCBCur) for OSTCBCur
    os_core.o(.text.OSStart) refers to os_cpu_a.o(.text) for OSStartHighRdy
    os_core.o(.ARM.exidx.text.OSStart) refers to os_core.o(.text.OSStart) for [Anonymous Symbol]
    os_core.o(.text.OSStatInit) refers to os_time.o(.text.OSTimeDly) for OSTimeDly
    os_core.o(.text.OSStatInit) refers to os_cpu_a.o(.text) for OS_CPU_SR_Save
    os_core.o(.text.OSStatInit) refers to os_core.o(.bss.OSIdleCtr) for OSIdleCtr
    os_core.o(.text.OSStatInit) refers to os_core.o(.bss.OSIdleCtrMax) for OSIdleCtrMax
    os_core.o(.text.OSStatInit) refers to os_core.o(.bss.OSStatRdy) for OSStatRdy
    os_core.o(.ARM.exidx.text.OSStatInit) refers to os_core.o(.text.OSStatInit) for [Anonymous Symbol]
    os_core.o(.text.OSTimeTick) refers to os_cpu_c.o(.text.OSTimeTickHook) for OSTimeTickHook
    os_core.o(.text.OSTimeTick) refers to os_cpu_a.o(.text) for OS_CPU_SR_Save
    os_core.o(.text.OSTimeTick) refers to os_core.o(.bss.OSTime) for OSTime
    os_core.o(.text.OSTimeTick) refers to os_core.o(.bss.OSRunning) for OSRunning
    os_core.o(.text.OSTimeTick) refers to os_core.o(.bss.OSTickStepState) for OSTickStepState
    os_core.o(.text.OSTimeTick) refers to os_core.o(.bss.OSTCBList) for OSTCBList
    os_core.o(.text.OSTimeTick) refers to os_core.o(.bss.OSRdyGrp) for OSRdyGrp
    os_core.o(.text.OSTimeTick) refers to os_core.o(.bss.OSRdyTbl) for OSRdyTbl
    os_core.o(.ARM.exidx.text.OSTimeTick) refers to os_core.o(.text.OSTimeTick) for [Anonymous Symbol]
    os_core.o(.ARM.exidx.text.OSVersion) refers to os_core.o(.text.OSVersion) for [Anonymous Symbol]
    os_core.o(.ARM.exidx.text.OS_Dummy) refers to os_core.o(.text.OS_Dummy) for [Anonymous Symbol]
    os_core.o(.text.OS_EventTaskRdy) refers to os_core.o(.rodata.OSUnMapTbl) for OSUnMapTbl
    os_core.o(.text.OS_EventTaskRdy) refers to os_core.o(.bss.OSTCBPrioTbl) for OSTCBPrioTbl
    os_core.o(.text.OS_EventTaskRdy) refers to os_core.o(.bss.OSRdyGrp) for OSRdyGrp
    os_core.o(.text.OS_EventTaskRdy) refers to os_core.o(.bss.OSRdyTbl) for OSRdyTbl
    os_core.o(.text.OS_EventTaskRdy) refers to os_core.o(.text.OS_EventTaskRemove) for OS_EventTaskRemove
    os_core.o(.text.OS_EventTaskRdy) refers to os_core.o(.text.OS_EventTaskRemoveMulti) for OS_EventTaskRemoveMulti
    os_core.o(.ARM.exidx.text.OS_EventTaskRdy) refers to os_core.o(.text.OS_EventTaskRdy) for [Anonymous Symbol]
    os_core.o(.ARM.exidx.text.OS_EventTaskRemove) refers to os_core.o(.text.OS_EventTaskRemove) for [Anonymous Symbol]
    os_core.o(.text.OS_EventTaskWait) refers to os_core.o(.bss.OSTCBCur) for OSTCBCur
    os_core.o(.text.OS_EventTaskWait) refers to os_core.o(.bss.OSRdyTbl) for OSRdyTbl
    os_core.o(.text.OS_EventTaskWait) refers to os_core.o(.bss.OSRdyGrp) for OSRdyGrp
    os_core.o(.ARM.exidx.text.OS_EventTaskWait) refers to os_core.o(.text.OS_EventTaskWait) for [Anonymous Symbol]
    os_core.o(.ARM.exidx.text.OS_EventWaitListInit) refers to os_core.o(.text.OS_EventWaitListInit) for [Anonymous Symbol]
    os_core.o(.ARM.exidx.text.OS_MemClr) refers to os_core.o(.text.OS_MemClr) for [Anonymous Symbol]
    os_core.o(.ARM.exidx.text.OS_MemCopy) refers to os_core.o(.text.OS_MemCopy) for [Anonymous Symbol]
    os_core.o(.text.OS_TaskIdle) refers to os_cpu_a.o(.text) for OS_CPU_SR_Save
    os_core.o(.text.OS_TaskIdle) refers to os_core.o(.bss.OSIdleCtr) for OSIdleCtr
    os_core.o(.text.OS_TaskIdle) refers to os_cpu_c.o(.text.OSTaskIdleHook) for OSTaskIdleHook
    os_core.o(.ARM.exidx.text.OS_TaskIdle) refers to os_core.o(.text.OS_TaskIdle) for [Anonymous Symbol]
    os_core.o(.text.OS_TaskStat) refers to os_core.o(.bss.OSStatRdy) for OSStatRdy
    os_core.o(.text.OS_TaskStat) refers to os_time.o(.text.OSTimeDly) for OSTimeDly
    os_core.o(.text.OS_TaskStat) refers to os_core.o(.bss.OSIdleCtrMax) for OSIdleCtrMax
    os_core.o(.text.OS_TaskStat) refers to os_core.o(.bss.OSCPUUsage) for OSCPUUsage
    os_core.o(.text.OS_TaskStat) refers to os_task.o(.text.OSTaskSuspend) for OSTaskSuspend
    os_core.o(.text.OS_TaskStat) refers to os_cpu_a.o(.text) for OS_CPU_SR_Save
    os_core.o(.text.OS_TaskStat) refers to os_core.o(.bss.OSIdleCtr) for OSIdleCtr
    os_core.o(.text.OS_TaskStat) refers to os_core.o(.bss.OSIdleCtrRun) for OSIdleCtrRun
    os_core.o(.text.OS_TaskStat) refers to os_cpu_c.o(.text.OSTaskStatHook) for OSTaskStatHook
    os_core.o(.text.OS_TaskStat) refers to os_core.o(.text.OS_TaskStatStkChk) for OS_TaskStatStkChk
    os_core.o(.ARM.exidx.text.OS_TaskStat) refers to os_core.o(.text.OS_TaskStat) for [Anonymous Symbol]
    os_core.o(.text.OS_TaskStatStkChk) refers to os_task.o(.text.OSTaskStkChk) for OSTaskStkChk
    os_core.o(.text.OS_TaskStatStkChk) refers to os_core.o(.bss.OSTCBPrioTbl) for OSTCBPrioTbl
    os_core.o(.ARM.exidx.text.OS_TaskStatStkChk) refers to os_core.o(.text.OS_TaskStatStkChk) for [Anonymous Symbol]
    os_core.o(.text.OS_TCBInit) refers to os_cpu_a.o(.text) for OS_CPU_SR_Save
    os_core.o(.text.OS_TCBInit) refers to os_core.o(.bss.OSTCBFreeList) for OSTCBFreeList
    os_core.o(.text.OS_TCBInit) refers to os_core.o(.rodata.str1.1) for .L.str
    os_core.o(.text.OS_TCBInit) refers to os_cpu_c.o(.text.OSTCBInitHook) for OSTCBInitHook
    os_core.o(.text.OS_TCBInit) refers to os_core.o(.bss.OSTCBPrioTbl) for OSTCBPrioTbl
    os_core.o(.text.OS_TCBInit) refers to os_cpu_c.o(.text.OSTaskCreateHook) for OSTaskCreateHook
    os_core.o(.text.OS_TCBInit) refers to os_core.o(.bss.OSTCBList) for OSTCBList
    os_core.o(.text.OS_TCBInit) refers to os_core.o(.bss.OSRdyGrp) for OSRdyGrp
    os_core.o(.text.OS_TCBInit) refers to os_core.o(.bss.OSRdyTbl) for OSRdyTbl
    os_core.o(.text.OS_TCBInit) refers to os_core.o(.bss.OSTaskCtr) for OSTaskCtr
    os_core.o(.ARM.exidx.text.OS_TCBInit) refers to os_core.o(.text.OS_TCBInit) for [Anonymous Symbol]
    os_flag.o(.text.OSFlagAccept) refers to os_cpu_a.o(.text) for OS_CPU_SR_Save
    os_flag.o(.ARM.exidx.text.OSFlagAccept) refers to os_flag.o(.text.OSFlagAccept) for [Anonymous Symbol]
    os_flag.o(.text.OSFlagCreate) refers to os_core.o(.bss.OSIntNesting) for OSIntNesting
    os_flag.o(.text.OSFlagCreate) refers to os_cpu_a.o(.text) for OS_CPU_SR_Save
    os_flag.o(.text.OSFlagCreate) refers to os_core.o(.bss.OSFlagFreeList) for OSFlagFreeList
    os_flag.o(.text.OSFlagCreate) refers to os_flag.o(.rodata.str1.1) for .L.str
    os_flag.o(.ARM.exidx.text.OSFlagCreate) refers to os_flag.o(.text.OSFlagCreate) for [Anonymous Symbol]
    os_flag.o(.text.OSFlagDel) refers to os_core.o(.bss.OSIntNesting) for OSIntNesting
    os_flag.o(.text.OSFlagDel) refers to os_cpu_a.o(.text) for OS_CPU_SR_Save
    os_flag.o(.text.OSFlagDel) refers to os_flag.o(.rodata.str1.1) for .L.str
    os_flag.o(.text.OSFlagDel) refers to os_core.o(.bss.OSFlagFreeList) for OSFlagFreeList
    os_flag.o(.text.OSFlagDel) refers to os_flag.o(.text.OS_FlagTaskRdy) for OS_FlagTaskRdy
    os_flag.o(.text.OSFlagDel) refers to os_core.o(.text.OS_Sched) for OS_Sched
    os_flag.o(.ARM.exidx.text.OSFlagDel) refers to os_flag.o(.text.OSFlagDel) for [Anonymous Symbol]
    os_flag.o(.text.OS_FlagTaskRdy) refers to os_core.o(.bss.OSRdyGrp) for OSRdyGrp
    os_flag.o(.text.OS_FlagTaskRdy) refers to os_core.o(.bss.OSRdyTbl) for OSRdyTbl
    os_flag.o(.text.OS_FlagTaskRdy) refers to os_flag.o(.text.OS_FlagUnlink) for OS_FlagUnlink
    os_flag.o(.ARM.exidx.text.OS_FlagTaskRdy) refers to os_flag.o(.text.OS_FlagTaskRdy) for [Anonymous Symbol]
    os_flag.o(.text.OSFlagNameGet) refers to os_core.o(.bss.OSIntNesting) for OSIntNesting
    os_flag.o(.text.OSFlagNameGet) refers to os_cpu_a.o(.text) for OS_CPU_SR_Save
    os_flag.o(.text.OSFlagNameGet) refers to os_core.o(.text.OS_StrLen) for OS_StrLen
    os_flag.o(.ARM.exidx.text.OSFlagNameGet) refers to os_flag.o(.text.OSFlagNameGet) for [Anonymous Symbol]
    os_flag.o(.text.OSFlagNameSet) refers to os_core.o(.bss.OSIntNesting) for OSIntNesting
    os_flag.o(.text.OSFlagNameSet) refers to os_cpu_a.o(.text) for OS_CPU_SR_Save
    os_flag.o(.ARM.exidx.text.OSFlagNameSet) refers to os_flag.o(.text.OSFlagNameSet) for [Anonymous Symbol]
    os_flag.o(.text.OSFlagPend) refers to os_core.o(.bss.OSIntNesting) for OSIntNesting
    os_flag.o(.text.OSFlagPend) refers to os_core.o(.bss.OSLockNesting) for OSLockNesting
    os_flag.o(.text.OSFlagPend) refers to os_cpu_a.o(.text) for OS_CPU_SR_Save
    os_flag.o(.text.OSFlagPend) refers to os_core.o(.bss.OSTCBCur) for OSTCBCur
    os_flag.o(.text.OSFlagPend) refers to os_flag.o(.text.OS_FlagBlock) for OS_FlagBlock
    os_flag.o(.text.OSFlagPend) refers to os_core.o(.text.OS_Sched) for OS_Sched
    os_flag.o(.text.OSFlagPend) refers to os_flag.o(.text.OS_FlagUnlink) for OS_FlagUnlink
    os_flag.o(.ARM.exidx.text.OSFlagPend) refers to os_flag.o(.text.OSFlagPend) for [Anonymous Symbol]
    os_flag.o(.text.OS_FlagBlock) refers to os_core.o(.bss.OSTCBCur) for OSTCBCur
    os_flag.o(.text.OS_FlagBlock) refers to os_core.o(.bss.OSRdyTbl) for OSRdyTbl
    os_flag.o(.text.OS_FlagBlock) refers to os_core.o(.bss.OSRdyGrp) for OSRdyGrp
    os_flag.o(.ARM.exidx.text.OS_FlagBlock) refers to os_flag.o(.text.OS_FlagBlock) for [Anonymous Symbol]
    os_flag.o(.ARM.exidx.text.OS_FlagUnlink) refers to os_flag.o(.text.OS_FlagUnlink) for [Anonymous Symbol]
    os_flag.o(.text.OSFlagPendGetFlagsRdy) refers to os_cpu_a.o(.text) for OS_CPU_SR_Save
    os_flag.o(.text.OSFlagPendGetFlagsRdy) refers to os_core.o(.bss.OSTCBCur) for OSTCBCur
    os_flag.o(.ARM.exidx.text.OSFlagPendGetFlagsRdy) refers to os_flag.o(.text.OSFlagPendGetFlagsRdy) for [Anonymous Symbol]
    os_flag.o(.text.OSFlagPost) refers to os_cpu_a.o(.text) for OS_CPU_SR_Save
    os_flag.o(.text.OSFlagPost) refers to os_flag.o(.text.OS_FlagTaskRdy) for OS_FlagTaskRdy
    os_flag.o(.text.OSFlagPost) refers to os_core.o(.text.OS_Sched) for OS_Sched
    os_flag.o(.ARM.exidx.text.OSFlagPost) refers to os_flag.o(.text.OSFlagPost) for [Anonymous Symbol]
    os_flag.o(.text.OSFlagQuery) refers to os_cpu_a.o(.text) for OS_CPU_SR_Save
    os_flag.o(.ARM.exidx.text.OSFlagQuery) refers to os_flag.o(.text.OSFlagQuery) for [Anonymous Symbol]
    os_flag.o(.text.OS_FlagInit) refers to os_core.o(.bss.OSFlagTbl) for OSFlagTbl
    os_flag.o(.text.OS_FlagInit) refers to os_core.o(.text.OS_MemClr) for OS_MemClr
    os_flag.o(.text.OS_FlagInit) refers to os_flag.o(.rodata.str1.1) for .L.str
    os_flag.o(.text.OS_FlagInit) refers to os_core.o(.bss.OSFlagFreeList) for OSFlagFreeList
    os_flag.o(.ARM.exidx.text.OS_FlagInit) refers to os_flag.o(.text.OS_FlagInit) for [Anonymous Symbol]
    os_mbox.o(.text.OSMboxAccept) refers to os_cpu_a.o(.text) for OS_CPU_SR_Save
    os_mbox.o(.ARM.exidx.text.OSMboxAccept) refers to os_mbox.o(.text.OSMboxAccept) for [Anonymous Symbol]
    os_mbox.o(.text.OSMboxCreate) refers to os_core.o(.bss.OSIntNesting) for OSIntNesting
    os_mbox.o(.text.OSMboxCreate) refers to os_cpu_a.o(.text) for OS_CPU_SR_Save
    os_mbox.o(.text.OSMboxCreate) refers to os_core.o(.bss.OSEventFreeList) for OSEventFreeList
    os_mbox.o(.text.OSMboxCreate) refers to os_mbox.o(.rodata.str1.1) for .L.str
    os_mbox.o(.text.OSMboxCreate) refers to os_core.o(.text.OS_EventWaitListInit) for OS_EventWaitListInit
    os_mbox.o(.ARM.exidx.text.OSMboxCreate) refers to os_mbox.o(.text.OSMboxCreate) for [Anonymous Symbol]
    os_mbox.o(.text.OSMboxDel) refers to os_core.o(.bss.OSIntNesting) for OSIntNesting
    os_mbox.o(.text.OSMboxDel) refers to os_cpu_a.o(.text) for OS_CPU_SR_Save
    os_mbox.o(.text.OSMboxDel) refers to os_mbox.o(.rodata.str1.1) for .L.str
    os_mbox.o(.text.OSMboxDel) refers to os_core.o(.bss.OSEventFreeList) for OSEventFreeList
    os_mbox.o(.text.OSMboxDel) refers to os_core.o(.text.OS_EventTaskRdy) for OS_EventTaskRdy
    os_mbox.o(.text.OSMboxDel) refers to os_core.o(.text.OS_Sched) for OS_Sched
    os_mbox.o(.ARM.exidx.text.OSMboxDel) refers to os_mbox.o(.text.OSMboxDel) for [Anonymous Symbol]
    os_mbox.o(.text.OSMboxPend) refers to os_core.o(.bss.OSIntNesting) for OSIntNesting
    os_mbox.o(.text.OSMboxPend) refers to os_core.o(.bss.OSLockNesting) for OSLockNesting
    os_mbox.o(.text.OSMboxPend) refers to os_cpu_a.o(.text) for OS_CPU_SR_Save
    os_mbox.o(.text.OSMboxPend) refers to os_core.o(.bss.OSTCBCur) for OSTCBCur
    os_mbox.o(.text.OSMboxPend) refers to os_core.o(.text.OS_EventTaskWait) for OS_EventTaskWait
    os_mbox.o(.text.OSMboxPend) refers to os_core.o(.text.OS_Sched) for OS_Sched
    os_mbox.o(.text.OSMboxPend) refers to os_core.o(.text.OS_EventTaskRemove) for OS_EventTaskRemove
    os_mbox.o(.ARM.exidx.text.OSMboxPend) refers to os_mbox.o(.text.OSMboxPend) for [Anonymous Symbol]
    os_mbox.o(.text.OSMboxPendAbort) refers to os_cpu_a.o(.text) for OS_CPU_SR_Save
    os_mbox.o(.text.OSMboxPendAbort) refers to os_core.o(.text.OS_EventTaskRdy) for OS_EventTaskRdy
    os_mbox.o(.text.OSMboxPendAbort) refers to os_core.o(.text.OS_Sched) for OS_Sched
    os_mbox.o(.ARM.exidx.text.OSMboxPendAbort) refers to os_mbox.o(.text.OSMboxPendAbort) for [Anonymous Symbol]
    os_mbox.o(.text.OSMboxPost) refers to os_cpu_a.o(.text) for OS_CPU_SR_Save
    os_mbox.o(.text.OSMboxPost) refers to os_core.o(.text.OS_EventTaskRdy) for OS_EventTaskRdy
    os_mbox.o(.text.OSMboxPost) refers to os_core.o(.text.OS_Sched) for OS_Sched
    os_mbox.o(.ARM.exidx.text.OSMboxPost) refers to os_mbox.o(.text.OSMboxPost) for [Anonymous Symbol]
    os_mbox.o(.text.OSMboxPostOpt) refers to os_cpu_a.o(.text) for OS_CPU_SR_Save
    os_mbox.o(.text.OSMboxPostOpt) refers to os_core.o(.text.OS_EventTaskRdy) for OS_EventTaskRdy
    os_mbox.o(.text.OSMboxPostOpt) refers to os_core.o(.text.OS_Sched) for OS_Sched
    os_mbox.o(.ARM.exidx.text.OSMboxPostOpt) refers to os_mbox.o(.text.OSMboxPostOpt) for [Anonymous Symbol]
    os_mbox.o(.text.OSMboxQuery) refers to os_cpu_a.o(.text) for OS_CPU_SR_Save
    os_mbox.o(.ARM.exidx.text.OSMboxQuery) refers to os_mbox.o(.text.OSMboxQuery) for [Anonymous Symbol]
    os_mem.o(.text.OSMemCreate) refers to os_cpu_a.o(.text) for OS_CPU_SR_Save
    os_mem.o(.text.OSMemCreate) refers to os_core.o(.bss.OSMemFreeList) for OSMemFreeList
    os_mem.o(.ARM.exidx.text.OSMemCreate) refers to os_mem.o(.text.OSMemCreate) for [Anonymous Symbol]
    os_mem.o(.text.OSMemGet) refers to os_cpu_a.o(.text) for OS_CPU_SR_Save
    os_mem.o(.ARM.exidx.text.OSMemGet) refers to os_mem.o(.text.OSMemGet) for [Anonymous Symbol]
    os_mem.o(.text.OSMemNameGet) refers to os_core.o(.bss.OSIntNesting) for OSIntNesting
    os_mem.o(.text.OSMemNameGet) refers to os_cpu_a.o(.text) for OS_CPU_SR_Save
    os_mem.o(.text.OSMemNameGet) refers to os_core.o(.text.OS_StrLen) for OS_StrLen
    os_mem.o(.ARM.exidx.text.OSMemNameGet) refers to os_mem.o(.text.OSMemNameGet) for [Anonymous Symbol]
    os_mem.o(.text.OSMemNameSet) refers to os_core.o(.bss.OSIntNesting) for OSIntNesting
    os_mem.o(.text.OSMemNameSet) refers to os_cpu_a.o(.text) for OS_CPU_SR_Save
    os_mem.o(.ARM.exidx.text.OSMemNameSet) refers to os_mem.o(.text.OSMemNameSet) for [Anonymous Symbol]
    os_mem.o(.text.OSMemPut) refers to os_cpu_a.o(.text) for OS_CPU_SR_Save
    os_mem.o(.ARM.exidx.text.OSMemPut) refers to os_mem.o(.text.OSMemPut) for [Anonymous Symbol]
    os_mem.o(.text.OSMemQuery) refers to os_cpu_a.o(.text) for OS_CPU_SR_Save
    os_mem.o(.ARM.exidx.text.OSMemQuery) refers to os_mem.o(.text.OSMemQuery) for [Anonymous Symbol]
    os_mem.o(.text.OS_MemInit) refers to os_core.o(.bss.OSMemTbl) for OSMemTbl
    os_mem.o(.text.OS_MemInit) refers to os_core.o(.text.OS_MemClr) for OS_MemClr
    os_mem.o(.text.OS_MemInit) refers to os_mem.o(.rodata.str1.1) for .L.str
    os_mem.o(.text.OS_MemInit) refers to os_core.o(.bss.OSMemFreeList) for OSMemFreeList
    os_mem.o(.ARM.exidx.text.OS_MemInit) refers to os_mem.o(.text.OS_MemInit) for [Anonymous Symbol]
    os_mutex.o(.text.OSMutexAccept) refers to os_core.o(.bss.OSIntNesting) for OSIntNesting
    os_mutex.o(.text.OSMutexAccept) refers to os_cpu_a.o(.text) for OS_CPU_SR_Save
    os_mutex.o(.text.OSMutexAccept) refers to os_core.o(.bss.OSTCBCur) for OSTCBCur
    os_mutex.o(.ARM.exidx.text.OSMutexAccept) refers to os_mutex.o(.text.OSMutexAccept) for [Anonymous Symbol]
    os_mutex.o(.text.OSMutexCreate) refers to os_core.o(.bss.OSIntNesting) for OSIntNesting
    os_mutex.o(.text.OSMutexCreate) refers to os_cpu_a.o(.text) for OS_CPU_SR_Save
    os_mutex.o(.text.OSMutexCreate) refers to os_core.o(.bss.OSTCBPrioTbl) for OSTCBPrioTbl
    os_mutex.o(.text.OSMutexCreate) refers to os_core.o(.bss.OSEventFreeList) for OSEventFreeList
    os_mutex.o(.text.OSMutexCreate) refers to os_mutex.o(.rodata.str1.1) for .L.str
    os_mutex.o(.text.OSMutexCreate) refers to os_core.o(.text.OS_EventWaitListInit) for OS_EventWaitListInit
    os_mutex.o(.ARM.exidx.text.OSMutexCreate) refers to os_mutex.o(.text.OSMutexCreate) for [Anonymous Symbol]
    os_mutex.o(.text.OSMutexDel) refers to os_core.o(.bss.OSIntNesting) for OSIntNesting
    os_mutex.o(.text.OSMutexDel) refers to os_cpu_a.o(.text) for OS_CPU_SR_Save
    os_mutex.o(.text.OSMutexDel) refers to os_mutex.o(.rodata.str1.1) for .L.str
    os_mutex.o(.text.OSMutexDel) refers to os_core.o(.bss.OSTCBPrioTbl) for OSTCBPrioTbl
    os_mutex.o(.text.OSMutexDel) refers to os_core.o(.bss.OSEventFreeList) for OSEventFreeList
    os_mutex.o(.text.OSMutexDel) refers to os_mutex.o(.text.OSMutex_RdyAtPrio) for OSMutex_RdyAtPrio
    os_mutex.o(.text.OSMutexDel) refers to os_core.o(.text.OS_EventTaskRdy) for OS_EventTaskRdy
    os_mutex.o(.text.OSMutexDel) refers to os_core.o(.text.OS_Sched) for OS_Sched
    os_mutex.o(.ARM.exidx.text.OSMutexDel) refers to os_mutex.o(.text.OSMutexDel) for [Anonymous Symbol]
    os_mutex.o(.text.OSMutex_RdyAtPrio) refers to os_core.o(.bss.OSRdyTbl) for OSRdyTbl
    os_mutex.o(.text.OSMutex_RdyAtPrio) refers to os_core.o(.bss.OSRdyGrp) for OSRdyGrp
    os_mutex.o(.text.OSMutex_RdyAtPrio) refers to os_core.o(.bss.OSPrioCur) for OSPrioCur
    os_mutex.o(.text.OSMutex_RdyAtPrio) refers to os_core.o(.bss.OSTCBPrioTbl) for OSTCBPrioTbl
    os_mutex.o(.ARM.exidx.text.OSMutex_RdyAtPrio) refers to os_mutex.o(.text.OSMutex_RdyAtPrio) for [Anonymous Symbol]
    os_mutex.o(.text.OSMutexPend) refers to os_core.o(.bss.OSIntNesting) for OSIntNesting
    os_mutex.o(.text.OSMutexPend) refers to os_core.o(.bss.OSLockNesting) for OSLockNesting
    os_mutex.o(.text.OSMutexPend) refers to os_cpu_a.o(.text) for OS_CPU_SR_Save
    os_mutex.o(.text.OSMutexPend) refers to os_core.o(.bss.OSTCBCur) for OSTCBCur
    os_mutex.o(.text.OSMutexPend) refers to os_core.o(.bss.OSRdyTbl) for OSRdyTbl
    os_mutex.o(.text.OSMutexPend) refers to os_core.o(.bss.OSRdyGrp) for OSRdyGrp
    os_mutex.o(.text.OSMutexPend) refers to os_core.o(.bss.OSTCBPrioTbl) for OSTCBPrioTbl
    os_mutex.o(.text.OSMutexPend) refers to os_core.o(.text.OS_EventTaskWait) for OS_EventTaskWait
    os_mutex.o(.text.OSMutexPend) refers to os_core.o(.text.OS_Sched) for OS_Sched
    os_mutex.o(.text.OSMutexPend) refers to os_core.o(.text.OS_EventTaskRemove) for OS_EventTaskRemove
    os_mutex.o(.ARM.exidx.text.OSMutexPend) refers to os_mutex.o(.text.OSMutexPend) for [Anonymous Symbol]
    os_mutex.o(.text.OSMutexPost) refers to os_core.o(.bss.OSIntNesting) for OSIntNesting
    os_mutex.o(.text.OSMutexPost) refers to os_cpu_a.o(.text) for OS_CPU_SR_Save
    os_mutex.o(.text.OSMutexPost) refers to os_core.o(.bss.OSTCBCur) for OSTCBCur
    os_mutex.o(.text.OSMutexPost) refers to os_mutex.o(.text.OSMutex_RdyAtPrio) for OSMutex_RdyAtPrio
    os_mutex.o(.text.OSMutexPost) refers to os_core.o(.bss.OSTCBPrioTbl) for OSTCBPrioTbl
    os_mutex.o(.text.OSMutexPost) refers to os_core.o(.text.OS_EventTaskRdy) for OS_EventTaskRdy
    os_mutex.o(.text.OSMutexPost) refers to os_core.o(.text.OS_Sched) for OS_Sched
    os_mutex.o(.ARM.exidx.text.OSMutexPost) refers to os_mutex.o(.text.OSMutexPost) for [Anonymous Symbol]
    os_mutex.o(.text.OSMutexQuery) refers to os_core.o(.bss.OSIntNesting) for OSIntNesting
    os_mutex.o(.text.OSMutexQuery) refers to os_cpu_a.o(.text) for OS_CPU_SR_Save
    os_mutex.o(.ARM.exidx.text.OSMutexQuery) refers to os_mutex.o(.text.OSMutexQuery) for [Anonymous Symbol]
    os_q.o(.text.OSQAccept) refers to os_cpu_a.o(.text) for OS_CPU_SR_Save
    os_q.o(.ARM.exidx.text.OSQAccept) refers to os_q.o(.text.OSQAccept) for [Anonymous Symbol]
    os_q.o(.text.OSQCreate) refers to os_core.o(.bss.OSIntNesting) for OSIntNesting
    os_q.o(.text.OSQCreate) refers to os_cpu_a.o(.text) for OS_CPU_SR_Save
    os_q.o(.text.OSQCreate) refers to os_core.o(.bss.OSEventFreeList) for OSEventFreeList
    os_q.o(.text.OSQCreate) refers to os_core.o(.bss.OSQFreeList) for OSQFreeList
    os_q.o(.text.OSQCreate) refers to os_q.o(.rodata.str1.1) for .L.str
    os_q.o(.text.OSQCreate) refers to os_core.o(.text.OS_EventWaitListInit) for OS_EventWaitListInit
    os_q.o(.ARM.exidx.text.OSQCreate) refers to os_q.o(.text.OSQCreate) for [Anonymous Symbol]
    os_q.o(.text.OSQDel) refers to os_core.o(.bss.OSIntNesting) for OSIntNesting
    os_q.o(.text.OSQDel) refers to os_cpu_a.o(.text) for OS_CPU_SR_Save
    os_q.o(.text.OSQDel) refers to os_q.o(.rodata.str1.1) for .L.str
    os_q.o(.text.OSQDel) refers to os_core.o(.bss.OSQFreeList) for OSQFreeList
    os_q.o(.text.OSQDel) refers to os_core.o(.bss.OSEventFreeList) for OSEventFreeList
    os_q.o(.text.OSQDel) refers to os_core.o(.text.OS_EventTaskRdy) for OS_EventTaskRdy
    os_q.o(.text.OSQDel) refers to os_core.o(.text.OS_Sched) for OS_Sched
    os_q.o(.ARM.exidx.text.OSQDel) refers to os_q.o(.text.OSQDel) for [Anonymous Symbol]
    os_q.o(.text.OSQFlush) refers to os_cpu_a.o(.text) for OS_CPU_SR_Save
    os_q.o(.ARM.exidx.text.OSQFlush) refers to os_q.o(.text.OSQFlush) for [Anonymous Symbol]
    os_q.o(.text.OSQPend) refers to os_core.o(.bss.OSIntNesting) for OSIntNesting
    os_q.o(.text.OSQPend) refers to os_core.o(.bss.OSLockNesting) for OSLockNesting
    os_q.o(.text.OSQPend) refers to os_cpu_a.o(.text) for OS_CPU_SR_Save
    os_q.o(.text.OSQPend) refers to os_core.o(.bss.OSTCBCur) for OSTCBCur
    os_q.o(.text.OSQPend) refers to os_core.o(.text.OS_EventTaskWait) for OS_EventTaskWait
    os_q.o(.text.OSQPend) refers to os_core.o(.text.OS_Sched) for OS_Sched
    os_q.o(.text.OSQPend) refers to os_core.o(.text.OS_EventTaskRemove) for OS_EventTaskRemove
    os_q.o(.ARM.exidx.text.OSQPend) refers to os_q.o(.text.OSQPend) for [Anonymous Symbol]
    os_q.o(.text.OSQPendAbort) refers to os_cpu_a.o(.text) for OS_CPU_SR_Save
    os_q.o(.text.OSQPendAbort) refers to os_core.o(.text.OS_EventTaskRdy) for OS_EventTaskRdy
    os_q.o(.text.OSQPendAbort) refers to os_core.o(.text.OS_Sched) for OS_Sched
    os_q.o(.ARM.exidx.text.OSQPendAbort) refers to os_q.o(.text.OSQPendAbort) for [Anonymous Symbol]
    os_q.o(.text.OSQPost) refers to os_cpu_a.o(.text) for OS_CPU_SR_Save
    os_q.o(.text.OSQPost) refers to os_core.o(.text.OS_EventTaskRdy) for OS_EventTaskRdy
    os_q.o(.text.OSQPost) refers to os_core.o(.text.OS_Sched) for OS_Sched
    os_q.o(.ARM.exidx.text.OSQPost) refers to os_q.o(.text.OSQPost) for [Anonymous Symbol]
    os_q.o(.text.OSQPostFront) refers to os_cpu_a.o(.text) for OS_CPU_SR_Save
    os_q.o(.text.OSQPostFront) refers to os_core.o(.text.OS_EventTaskRdy) for OS_EventTaskRdy
    os_q.o(.text.OSQPostFront) refers to os_core.o(.text.OS_Sched) for OS_Sched
    os_q.o(.ARM.exidx.text.OSQPostFront) refers to os_q.o(.text.OSQPostFront) for [Anonymous Symbol]
    os_q.o(.text.OSQPostOpt) refers to os_cpu_a.o(.text) for OS_CPU_SR_Save
    os_q.o(.text.OSQPostOpt) refers to os_core.o(.text.OS_EventTaskRdy) for OS_EventTaskRdy
    os_q.o(.text.OSQPostOpt) refers to os_core.o(.text.OS_Sched) for OS_Sched
    os_q.o(.ARM.exidx.text.OSQPostOpt) refers to os_q.o(.text.OSQPostOpt) for [Anonymous Symbol]
    os_q.o(.text.OSQQuery) refers to os_cpu_a.o(.text) for OS_CPU_SR_Save
    os_q.o(.ARM.exidx.text.OSQQuery) refers to os_q.o(.text.OSQQuery) for [Anonymous Symbol]
    os_q.o(.text.OS_QInit) refers to os_core.o(.bss.OSQTbl) for OSQTbl
    os_q.o(.text.OS_QInit) refers to os_core.o(.text.OS_MemClr) for OS_MemClr
    os_q.o(.text.OS_QInit) refers to os_core.o(.bss.OSQFreeList) for OSQFreeList
    os_q.o(.ARM.exidx.text.OS_QInit) refers to os_q.o(.text.OS_QInit) for [Anonymous Symbol]
    os_sem.o(.text.OSSemAccept) refers to os_cpu_a.o(.text) for OS_CPU_SR_Save
    os_sem.o(.ARM.exidx.text.OSSemAccept) refers to os_sem.o(.text.OSSemAccept) for [Anonymous Symbol]
    os_sem.o(.text.OSSemCreate) refers to os_core.o(.bss.OSIntNesting) for OSIntNesting
    os_sem.o(.text.OSSemCreate) refers to os_cpu_a.o(.text) for OS_CPU_SR_Save
    os_sem.o(.text.OSSemCreate) refers to os_core.o(.bss.OSEventFreeList) for OSEventFreeList
    os_sem.o(.text.OSSemCreate) refers to os_sem.o(.rodata.str1.1) for .L.str
    os_sem.o(.text.OSSemCreate) refers to os_core.o(.text.OS_EventWaitListInit) for OS_EventWaitListInit
    os_sem.o(.ARM.exidx.text.OSSemCreate) refers to os_sem.o(.text.OSSemCreate) for [Anonymous Symbol]
    os_sem.o(.text.OSSemDel) refers to os_core.o(.bss.OSIntNesting) for OSIntNesting
    os_sem.o(.text.OSSemDel) refers to os_cpu_a.o(.text) for OS_CPU_SR_Save
    os_sem.o(.text.OSSemDel) refers to os_sem.o(.rodata.str1.1) for .L.str
    os_sem.o(.text.OSSemDel) refers to os_core.o(.bss.OSEventFreeList) for OSEventFreeList
    os_sem.o(.text.OSSemDel) refers to os_core.o(.text.OS_EventTaskRdy) for OS_EventTaskRdy
    os_sem.o(.text.OSSemDel) refers to os_core.o(.text.OS_Sched) for OS_Sched
    os_sem.o(.ARM.exidx.text.OSSemDel) refers to os_sem.o(.text.OSSemDel) for [Anonymous Symbol]
    os_sem.o(.text.OSSemPend) refers to os_core.o(.bss.OSIntNesting) for OSIntNesting
    os_sem.o(.text.OSSemPend) refers to os_core.o(.bss.OSLockNesting) for OSLockNesting
    os_sem.o(.text.OSSemPend) refers to os_cpu_a.o(.text) for OS_CPU_SR_Save
    os_sem.o(.text.OSSemPend) refers to os_core.o(.bss.OSTCBCur) for OSTCBCur
    os_sem.o(.text.OSSemPend) refers to os_core.o(.text.OS_EventTaskWait) for OS_EventTaskWait
    os_sem.o(.text.OSSemPend) refers to os_core.o(.text.OS_Sched) for OS_Sched
    os_sem.o(.text.OSSemPend) refers to os_core.o(.text.OS_EventTaskRemove) for OS_EventTaskRemove
    os_sem.o(.ARM.exidx.text.OSSemPend) refers to os_sem.o(.text.OSSemPend) for [Anonymous Symbol]
    os_sem.o(.text.OSSemPendAbort) refers to os_cpu_a.o(.text) for OS_CPU_SR_Save
    os_sem.o(.text.OSSemPendAbort) refers to os_core.o(.text.OS_EventTaskRdy) for OS_EventTaskRdy
    os_sem.o(.text.OSSemPendAbort) refers to os_core.o(.text.OS_Sched) for OS_Sched
    os_sem.o(.ARM.exidx.text.OSSemPendAbort) refers to os_sem.o(.text.OSSemPendAbort) for [Anonymous Symbol]
    os_sem.o(.text.OSSemPost) refers to os_cpu_a.o(.text) for OS_CPU_SR_Save
    os_sem.o(.text.OSSemPost) refers to os_core.o(.text.OS_EventTaskRdy) for OS_EventTaskRdy
    os_sem.o(.text.OSSemPost) refers to os_core.o(.text.OS_Sched) for OS_Sched
    os_sem.o(.ARM.exidx.text.OSSemPost) refers to os_sem.o(.text.OSSemPost) for [Anonymous Symbol]
    os_sem.o(.text.OSSemQuery) refers to os_cpu_a.o(.text) for OS_CPU_SR_Save
    os_sem.o(.ARM.exidx.text.OSSemQuery) refers to os_sem.o(.text.OSSemQuery) for [Anonymous Symbol]
    os_sem.o(.text.OSSemSet) refers to os_cpu_a.o(.text) for OS_CPU_SR_Save
    os_sem.o(.ARM.exidx.text.OSSemSet) refers to os_sem.o(.text.OSSemSet) for [Anonymous Symbol]
    os_task.o(.text.OSTaskChangePrio) refers to os_cpu_a.o(.text) for OS_CPU_SR_Save
    os_task.o(.text.OSTaskChangePrio) refers to os_core.o(.bss.OSTCBPrioTbl) for OSTCBPrioTbl
    os_task.o(.text.OSTaskChangePrio) refers to os_core.o(.bss.OSTCBCur) for OSTCBCur
    os_task.o(.text.OSTaskChangePrio) refers to os_core.o(.bss.OSRdyTbl) for OSRdyTbl
    os_task.o(.text.OSTaskChangePrio) refers to os_core.o(.bss.OSRdyGrp) for OSRdyGrp
    os_task.o(.text.OSTaskChangePrio) refers to os_core.o(.bss.OSRunning) for OSRunning
    os_task.o(.text.OSTaskChangePrio) refers to os_core.o(.text.OS_Sched) for OS_Sched
    os_task.o(.ARM.exidx.text.OSTaskChangePrio) refers to os_task.o(.text.OSTaskChangePrio) for [Anonymous Symbol]
    os_task.o(.text.OSTaskCreate) refers to os_cpu_a.o(.text) for OS_CPU_SR_Save
    os_task.o(.text.OSTaskCreate) refers to os_core.o(.bss.OSIntNesting) for OSIntNesting
    os_task.o(.text.OSTaskCreate) refers to os_core.o(.bss.OSTCBPrioTbl) for OSTCBPrioTbl
    os_task.o(.text.OSTaskCreate) refers to os_cpu_c.o(.text.OSTaskStkInit) for OSTaskStkInit
    os_task.o(.text.OSTaskCreate) refers to os_core.o(.text.OS_TCBInit) for OS_TCBInit
    os_task.o(.text.OSTaskCreate) refers to os_core.o(.bss.OSRunning) for OSRunning
    os_task.o(.text.OSTaskCreate) refers to os_core.o(.text.OS_Sched) for OS_Sched
    os_task.o(.ARM.exidx.text.OSTaskCreate) refers to os_task.o(.text.OSTaskCreate) for [Anonymous Symbol]
    os_task.o(.text.OSTaskCreateExt) refers to os_cpu_a.o(.text) for OS_CPU_SR_Save
    os_task.o(.text.OSTaskCreateExt) refers to os_core.o(.bss.OSIntNesting) for OSIntNesting
    os_task.o(.text.OSTaskCreateExt) refers to os_core.o(.bss.OSTCBPrioTbl) for OSTCBPrioTbl
    os_task.o(.text.OSTaskCreateExt) refers to os_task.o(.text.OS_TaskStkClr) for OS_TaskStkClr
    os_task.o(.text.OSTaskCreateExt) refers to os_cpu_c.o(.text.OSTaskStkInit) for OSTaskStkInit
    os_task.o(.text.OSTaskCreateExt) refers to os_core.o(.text.OS_TCBInit) for OS_TCBInit
    os_task.o(.text.OSTaskCreateExt) refers to os_core.o(.bss.OSRunning) for OSRunning
    os_task.o(.text.OSTaskCreateExt) refers to os_core.o(.text.OS_Sched) for OS_Sched
    os_task.o(.ARM.exidx.text.OSTaskCreateExt) refers to os_task.o(.text.OSTaskCreateExt) for [Anonymous Symbol]
    os_task.o(.ARM.exidx.text.OS_TaskStkClr) refers to os_task.o(.text.OS_TaskStkClr) for [Anonymous Symbol]
    os_task.o(.text.OSTaskDel) refers to os_core.o(.bss.OSIntNesting) for OSIntNesting
    os_task.o(.text.OSTaskDel) refers to os_cpu_a.o(.text) for OS_CPU_SR_Save
    os_task.o(.text.OSTaskDel) refers to os_core.o(.bss.OSTCBCur) for OSTCBCur
    os_task.o(.text.OSTaskDel) refers to os_core.o(.bss.OSTCBPrioTbl) for OSTCBPrioTbl
    os_task.o(.text.OSTaskDel) refers to os_core.o(.bss.OSRdyTbl) for OSRdyTbl
    os_task.o(.text.OSTaskDel) refers to os_core.o(.bss.OSRdyGrp) for OSRdyGrp
    os_task.o(.text.OSTaskDel) refers to os_core.o(.text.OS_EventTaskRemove) for OS_EventTaskRemove
    os_task.o(.text.OSTaskDel) refers to os_core.o(.text.OS_EventTaskRemoveMulti) for OS_EventTaskRemoveMulti
    os_task.o(.text.OSTaskDel) refers to os_flag.o(.text.OS_FlagUnlink) for OS_FlagUnlink
    os_task.o(.text.OSTaskDel) refers to os_core.o(.bss.OSLockNesting) for OSLockNesting
    os_task.o(.text.OSTaskDel) refers to os_core.o(.text.OS_Dummy) for OS_Dummy
    os_task.o(.text.OSTaskDel) refers to os_cpu_c.o(.text.OSTaskDelHook) for OSTaskDelHook
    os_task.o(.text.OSTaskDel) refers to os_core.o(.bss.OSTaskCtr) for OSTaskCtr
    os_task.o(.text.OSTaskDel) refers to os_core.o(.bss.OSTCBList) for OSTCBList
    os_task.o(.text.OSTaskDel) refers to os_core.o(.bss.OSTCBFreeList) for OSTCBFreeList
    os_task.o(.text.OSTaskDel) refers to os_task.o(.rodata.str1.1) for .L.str
    os_task.o(.text.OSTaskDel) refers to os_core.o(.bss.OSRunning) for OSRunning
    os_task.o(.text.OSTaskDel) refers to os_core.o(.text.OS_Sched) for OS_Sched
    os_task.o(.ARM.exidx.text.OSTaskDel) refers to os_task.o(.text.OSTaskDel) for [Anonymous Symbol]
    os_task.o(.text.OSTaskDelReq) refers to os_cpu_a.o(.text) for OS_CPU_SR_Save
    os_task.o(.text.OSTaskDelReq) refers to os_core.o(.bss.OSTCBCur) for OSTCBCur
    os_task.o(.text.OSTaskDelReq) refers to os_core.o(.bss.OSTCBPrioTbl) for OSTCBPrioTbl
    os_task.o(.ARM.exidx.text.OSTaskDelReq) refers to os_task.o(.text.OSTaskDelReq) for [Anonymous Symbol]
    os_task.o(.text.OSTaskNameGet) refers to os_core.o(.bss.OSIntNesting) for OSIntNesting
    os_task.o(.text.OSTaskNameGet) refers to os_cpu_a.o(.text) for OS_CPU_SR_Save
    os_task.o(.text.OSTaskNameGet) refers to os_core.o(.bss.OSTCBCur) for OSTCBCur
    os_task.o(.text.OSTaskNameGet) refers to os_core.o(.bss.OSTCBPrioTbl) for OSTCBPrioTbl
    os_task.o(.text.OSTaskNameGet) refers to os_core.o(.text.OS_StrLen) for OS_StrLen
    os_task.o(.ARM.exidx.text.OSTaskNameGet) refers to os_task.o(.text.OSTaskNameGet) for [Anonymous Symbol]
    os_task.o(.text.OSTaskNameSet) refers to os_core.o(.bss.OSIntNesting) for OSIntNesting
    os_task.o(.text.OSTaskNameSet) refers to os_cpu_a.o(.text) for OS_CPU_SR_Save
    os_task.o(.text.OSTaskNameSet) refers to os_core.o(.bss.OSTCBCur) for OSTCBCur
    os_task.o(.text.OSTaskNameSet) refers to os_core.o(.bss.OSTCBPrioTbl) for OSTCBPrioTbl
    os_task.o(.ARM.exidx.text.OSTaskNameSet) refers to os_task.o(.text.OSTaskNameSet) for [Anonymous Symbol]
    os_task.o(.text.OSTaskResume) refers to os_cpu_a.o(.text) for OS_CPU_SR_Save
    os_task.o(.text.OSTaskResume) refers to os_core.o(.bss.OSTCBPrioTbl) for OSTCBPrioTbl
    os_task.o(.text.OSTaskResume) refers to os_core.o(.bss.OSRdyGrp) for OSRdyGrp
    os_task.o(.text.OSTaskResume) refers to os_core.o(.bss.OSRdyTbl) for OSRdyTbl
    os_task.o(.text.OSTaskResume) refers to os_core.o(.bss.OSRunning) for OSRunning
    os_task.o(.text.OSTaskResume) refers to os_core.o(.text.OS_Sched) for OS_Sched
    os_task.o(.ARM.exidx.text.OSTaskResume) refers to os_task.o(.text.OSTaskResume) for [Anonymous Symbol]
    os_task.o(.text.OSTaskStkChk) refers to os_cpu_a.o(.text) for OS_CPU_SR_Save
    os_task.o(.text.OSTaskStkChk) refers to os_core.o(.bss.OSTCBCur) for OSTCBCur
    os_task.o(.text.OSTaskStkChk) refers to os_core.o(.bss.OSTCBPrioTbl) for OSTCBPrioTbl
    os_task.o(.ARM.exidx.text.OSTaskStkChk) refers to os_task.o(.text.OSTaskStkChk) for [Anonymous Symbol]
    os_task.o(.text.OSTaskSuspend) refers to os_cpu_a.o(.text) for OS_CPU_SR_Save
    os_task.o(.text.OSTaskSuspend) refers to os_core.o(.bss.OSTCBCur) for OSTCBCur
    os_task.o(.text.OSTaskSuspend) refers to os_core.o(.bss.OSTCBPrioTbl) for OSTCBPrioTbl
    os_task.o(.text.OSTaskSuspend) refers to os_core.o(.bss.OSRdyTbl) for OSRdyTbl
    os_task.o(.text.OSTaskSuspend) refers to os_core.o(.bss.OSRdyGrp) for OSRdyGrp
    os_task.o(.text.OSTaskSuspend) refers to os_core.o(.text.OS_Sched) for OS_Sched
    os_task.o(.ARM.exidx.text.OSTaskSuspend) refers to os_task.o(.text.OSTaskSuspend) for [Anonymous Symbol]
    os_task.o(.text.OSTaskQuery) refers to os_cpu_a.o(.text) for OS_CPU_SR_Save
    os_task.o(.text.OSTaskQuery) refers to os_core.o(.bss.OSTCBCur) for OSTCBCur
    os_task.o(.text.OSTaskQuery) refers to os_core.o(.bss.OSTCBPrioTbl) for OSTCBPrioTbl
    os_task.o(.text.OSTaskQuery) refers to os_core.o(.text.OS_MemCopy) for OS_MemCopy
    os_task.o(.ARM.exidx.text.OSTaskQuery) refers to os_task.o(.text.OSTaskQuery) for [Anonymous Symbol]
    os_task.o(.text.OSTaskRegGet) refers to os_cpu_a.o(.text) for OS_CPU_SR_Save
    os_task.o(.text.OSTaskRegGet) refers to os_core.o(.bss.OSTCBCur) for OSTCBCur
    os_task.o(.text.OSTaskRegGet) refers to os_core.o(.bss.OSTCBPrioTbl) for OSTCBPrioTbl
    os_task.o(.ARM.exidx.text.OSTaskRegGet) refers to os_task.o(.text.OSTaskRegGet) for [Anonymous Symbol]
    os_task.o(.text.OSTaskRegGetID) refers to os_cpu_a.o(.text) for OS_CPU_SR_Save
    os_task.o(.text.OSTaskRegGetID) refers to os_core.o(.bss.OSTaskRegNextAvailID) for OSTaskRegNextAvailID
    os_task.o(.ARM.exidx.text.OSTaskRegGetID) refers to os_task.o(.text.OSTaskRegGetID) for [Anonymous Symbol]
    os_task.o(.text.OSTaskRegSet) refers to os_cpu_a.o(.text) for OS_CPU_SR_Save
    os_task.o(.text.OSTaskRegSet) refers to os_core.o(.bss.OSTCBCur) for OSTCBCur
    os_task.o(.text.OSTaskRegSet) refers to os_core.o(.bss.OSTCBPrioTbl) for OSTCBPrioTbl
    os_task.o(.ARM.exidx.text.OSTaskRegSet) refers to os_task.o(.text.OSTaskRegSet) for [Anonymous Symbol]
    os_task.o(.text.OS_TaskReturn) refers to os_core.o(.bss.OSTCBCur) for OSTCBCur
    os_task.o(.text.OS_TaskReturn) refers to os_cpu_c.o(.text.OSTaskReturnHook) for OSTaskReturnHook
    os_task.o(.text.OS_TaskReturn) refers to os_task.o(.text.OSTaskDel) for OSTaskDel
    os_task.o(.ARM.exidx.text.OS_TaskReturn) refers to os_task.o(.text.OS_TaskReturn) for [Anonymous Symbol]
    os_time.o(.text.OSTimeDly) refers to os_core.o(.bss.OSIntNesting) for OSIntNesting
    os_time.o(.text.OSTimeDly) refers to os_core.o(.bss.OSLockNesting) for OSLockNesting
    os_time.o(.text.OSTimeDly) refers to os_cpu_a.o(.text) for OS_CPU_SR_Save
    os_time.o(.text.OSTimeDly) refers to os_core.o(.bss.OSTCBCur) for OSTCBCur
    os_time.o(.text.OSTimeDly) refers to os_core.o(.bss.OSRdyTbl) for OSRdyTbl
    os_time.o(.text.OSTimeDly) refers to os_core.o(.bss.OSRdyGrp) for OSRdyGrp
    os_time.o(.text.OSTimeDly) refers to os_core.o(.text.OS_Sched) for OS_Sched
    os_time.o(.ARM.exidx.text.OSTimeDly) refers to os_time.o(.text.OSTimeDly) for [Anonymous Symbol]
    os_time.o(.text.OSTimeDlyHMSM) refers to os_core.o(.bss.OSIntNesting) for OSIntNesting
    os_time.o(.text.OSTimeDlyHMSM) refers to os_core.o(.bss.OSLockNesting) for OSLockNesting
    os_time.o(.text.OSTimeDlyHMSM) refers to os_time.o(.text.OSTimeDly) for OSTimeDly
    os_time.o(.ARM.exidx.text.OSTimeDlyHMSM) refers to os_time.o(.text.OSTimeDlyHMSM) for [Anonymous Symbol]
    os_time.o(.text.OSTimeDlyResume) refers to os_cpu_a.o(.text) for OS_CPU_SR_Save
    os_time.o(.text.OSTimeDlyResume) refers to os_core.o(.bss.OSTCBPrioTbl) for OSTCBPrioTbl
    os_time.o(.text.OSTimeDlyResume) refers to os_core.o(.bss.OSRdyGrp) for OSRdyGrp
    os_time.o(.text.OSTimeDlyResume) refers to os_core.o(.bss.OSRdyTbl) for OSRdyTbl
    os_time.o(.text.OSTimeDlyResume) refers to os_core.o(.text.OS_Sched) for OS_Sched
    os_time.o(.ARM.exidx.text.OSTimeDlyResume) refers to os_time.o(.text.OSTimeDlyResume) for [Anonymous Symbol]
    os_time.o(.text.OSTimeGet) refers to os_cpu_a.o(.text) for OS_CPU_SR_Save
    os_time.o(.text.OSTimeGet) refers to os_core.o(.bss.OSTime) for OSTime
    os_time.o(.ARM.exidx.text.OSTimeGet) refers to os_time.o(.text.OSTimeGet) for [Anonymous Symbol]
    os_time.o(.text.OSTimeSet) refers to os_cpu_a.o(.text) for OS_CPU_SR_Save
    os_time.o(.text.OSTimeSet) refers to os_core.o(.bss.OSTime) for OSTime
    os_time.o(.ARM.exidx.text.OSTimeSet) refers to os_time.o(.text.OSTimeSet) for [Anonymous Symbol]
    app_hooks.o(.ARM.exidx.text.App_TaskCreateHook) refers to app_hooks.o(.text.App_TaskCreateHook) for [Anonymous Symbol]
    app_hooks.o(.ARM.exidx.text.App_TaskDelHook) refers to app_hooks.o(.text.App_TaskDelHook) for [Anonymous Symbol]
    app_hooks.o(.ARM.exidx.text.App_TaskIdleHook) refers to app_hooks.o(.text.App_TaskIdleHook) for [Anonymous Symbol]
    app_hooks.o(.ARM.exidx.text.App_TaskStatHook) refers to app_hooks.o(.text.App_TaskStatHook) for [Anonymous Symbol]
    app_hooks.o(.ARM.exidx.text.App_TaskReturnHook) refers to app_hooks.o(.text.App_TaskReturnHook) for [Anonymous Symbol]
    app_hooks.o(.ARM.exidx.text.App_TaskSwHook) refers to app_hooks.o(.text.App_TaskSwHook) for [Anonymous Symbol]
    app_hooks.o(.ARM.exidx.text.App_TCBInitHook) refers to app_hooks.o(.text.App_TCBInitHook) for [Anonymous Symbol]
    os_cpu_a.o(.text) refers to os_cpu_c.o(.bss.OS_KA_BASEPRI_Boundary) for OS_KA_BASEPRI_Boundary
    os_cpu_a.o(.text) refers to os_cpu_c.o(.text.OSTaskSwHook) for OSTaskSwHook
    os_cpu_a.o(.text) refers to os_cpu_c.o(.bss.OS_CPU_ExceptStkBase) for OS_CPU_ExceptStkBase
    os_cpu_a.o(.text) refers to os_core.o(.bss.OSRunning) for OSRunning
    os_cpu_a.o(.text) refers to os_core.o(.bss.OSPrioCur) for OSPrioCur
    os_cpu_a.o(.text) refers to os_core.o(.bss.OSPrioHighRdy) for OSPrioHighRdy
    os_cpu_a.o(.text) refers to os_core.o(.bss.OSTCBCur) for OSTCBCur
    os_cpu_a.o(.text) refers to os_core.o(.bss.OSTCBHighRdy) for OSTCBHighRdy
    os_cpu_c.o(.text.OSInitHookBegin) refers to os_cpu_c.o(.bss.OS_CPU_ExceptStk) for OS_CPU_ExceptStk
    os_cpu_c.o(.text.OSInitHookBegin) refers to os_cpu_c.o(.bss.OS_CPU_ExceptStkBase) for OS_CPU_ExceptStkBase
    os_cpu_c.o(.text.OSInitHookBegin) refers to os_cpu_c.o(.bss.OS_KA_BASEPRI_Boundary) for OS_KA_BASEPRI_Boundary
    os_cpu_c.o(.ARM.exidx.text.OSInitHookBegin) refers to os_cpu_c.o(.text.OSInitHookBegin) for [Anonymous Symbol]
    os_cpu_c.o(.ARM.exidx.text.OSInitHookEnd) refers to os_cpu_c.o(.text.OSInitHookEnd) for [Anonymous Symbol]
    os_cpu_c.o(.text.OSTaskCreateHook) refers to app_hooks.o(.text.App_TaskCreateHook) for App_TaskCreateHook
    os_cpu_c.o(.ARM.exidx.text.OSTaskCreateHook) refers to os_cpu_c.o(.text.OSTaskCreateHook) for [Anonymous Symbol]
    os_cpu_c.o(.text.OSTaskDelHook) refers to app_hooks.o(.text.App_TaskDelHook) for App_TaskDelHook
    os_cpu_c.o(.ARM.exidx.text.OSTaskDelHook) refers to os_cpu_c.o(.text.OSTaskDelHook) for [Anonymous Symbol]
    os_cpu_c.o(.text.OSTaskIdleHook) refers to app_hooks.o(.text.App_TaskIdleHook) for App_TaskIdleHook
    os_cpu_c.o(.ARM.exidx.text.OSTaskIdleHook) refers to os_cpu_c.o(.text.OSTaskIdleHook) for [Anonymous Symbol]
    os_cpu_c.o(.text.OSTaskReturnHook) refers to app_hooks.o(.text.App_TaskReturnHook) for App_TaskReturnHook
    os_cpu_c.o(.ARM.exidx.text.OSTaskReturnHook) refers to os_cpu_c.o(.text.OSTaskReturnHook) for [Anonymous Symbol]
    os_cpu_c.o(.text.OSTaskStatHook) refers to app_hooks.o(.text.App_TaskStatHook) for App_TaskStatHook
    os_cpu_c.o(.ARM.exidx.text.OSTaskStatHook) refers to os_cpu_c.o(.text.OSTaskStatHook) for [Anonymous Symbol]
    os_cpu_c.o(.text.OSTaskStkInit) refers to os_task.o(.text.OS_TaskReturn) for OS_TaskReturn
    os_cpu_c.o(.ARM.exidx.text.OSTaskStkInit) refers to os_cpu_c.o(.text.OSTaskStkInit) for [Anonymous Symbol]
    os_cpu_c.o(.text.OSTaskSwHook) refers to app_hooks.o(.text.App_TaskSwHook) for App_TaskSwHook
    os_cpu_c.o(.ARM.exidx.text.OSTaskSwHook) refers to os_cpu_c.o(.text.OSTaskSwHook) for [Anonymous Symbol]
    os_cpu_c.o(.text.OSTCBInitHook) refers to app_hooks.o(.text.App_TCBInitHook) for App_TCBInitHook
    os_cpu_c.o(.ARM.exidx.text.OSTCBInitHook) refers to os_cpu_c.o(.text.OSTCBInitHook) for [Anonymous Symbol]
    os_cpu_c.o(.text.OSTimeTickHook) refers to main.o(.text.App_TimeTickHook) for App_TimeTickHook
    os_cpu_c.o(.ARM.exidx.text.OSTimeTickHook) refers to os_cpu_c.o(.text.OSTimeTickHook) for [Anonymous Symbol]
    os_cpu_c.o(.text.OS_CPU_SysTickHandler) refers to os_cpu_a.o(.text) for OS_CPU_SR_Save
    os_cpu_c.o(.text.OS_CPU_SysTickHandler) refers to os_core.o(.text.OSIntEnter) for OSIntEnter
    os_cpu_c.o(.text.OS_CPU_SysTickHandler) refers to os_core.o(.text.OSTimeTick) for OSTimeTick
    os_cpu_c.o(.text.OS_CPU_SysTickHandler) refers to os_core.o(.text.OSIntExit) for OSIntExit
    os_cpu_c.o(.ARM.exidx.text.OS_CPU_SysTickHandler) refers to os_cpu_c.o(.text.OS_CPU_SysTickHandler) for [Anonymous Symbol]
    os_cpu_c.o(.text.OS_CPU_SysTickInitFreq) refers to os_cpu_c.o(.text.OS_CPU_SysTickInit) for OS_CPU_SysTickInit
    os_cpu_c.o(.ARM.exidx.text.OS_CPU_SysTickInitFreq) refers to os_cpu_c.o(.text.OS_CPU_SysTickInitFreq) for [Anonymous Symbol]
    os_cpu_c.o(.ARM.exidx.text.OS_CPU_SysTickInit) refers to os_cpu_c.o(.text.OS_CPU_SysTickInit) for [Anonymous Symbol]
    sdd1306.o(.text.sdd1306_init) refers to sdd1306.o(.rodata..L__const.sdd1306_init.initializeCmds) for .L__const.sdd1306_init.initializeCmds
    sdd1306.o(.text.sdd1306_init) refers to rt_memcpy_v6.o(.text) for __aeabi_memcpy
    sdd1306.o(.text.sdd1306_init) refers to bsp_i2c.o(.text.bsp_i2c_master_transfer) for bsp_i2c_master_transfer
    sdd1306.o(.text.sdd1306_init) refers to sdd1306.o(.data.zeros) for zeros
    sdd1306.o(.ARM.exidx.text.sdd1306_init) refers to sdd1306.o(.text.sdd1306_init) for [Anonymous Symbol]
    sdd1306.o(.text.sdd1306_draw) refers to bsp_i2c.o(.text.bsp_i2c_master_transfer) for bsp_i2c_master_transfer
    sdd1306.o(.ARM.exidx.text.sdd1306_draw) refers to sdd1306.o(.text.sdd1306_draw) for [Anonymous Symbol]
    sdd1306.o(.text.sdd1306_clear_area) refers to sdd1306.o(.data.zeros) for zeros
    sdd1306.o(.text.sdd1306_clear_area) refers to sdd1306.o(.text.sdd1306_draw) for sdd1306_draw
    sdd1306.o(.ARM.exidx.text.sdd1306_clear_area) refers to sdd1306.o(.text.sdd1306_clear_area) for [Anonymous Symbol]
    veml6040.o(.text.veml6040_init) refers to bsp_i2c.o(.text.bsp_i2c_master_transfer) for bsp_i2c_master_transfer
    veml6040.o(.ARM.exidx.text.veml6040_init) refers to veml6040.o(.text.veml6040_init) for [Anonymous Symbol]
    veml6040.o(.text.veml6040_get_data_raw) refers to bsp_i2c.o(.text.bsp_i2c_master_receive_reg) for bsp_i2c_master_receive_reg
    veml6040.o(.ARM.exidx.text.veml6040_get_data_raw) refers to veml6040.o(.text.veml6040_get_data_raw) for [Anonymous Symbol]
    qep_hsm.o(.text.QHsm_ctor) refers to qep_hsm.o(.rodata.QHsm_ctor.vtable) for QHsm_ctor.vtable
    qep_hsm.o(.text.QHsm_ctor) refers to qep_hsm.o(.text.QHsm_top) for QHsm_top
    qep_hsm.o(.ARM.exidx.text.QHsm_ctor) refers to qep_hsm.o(.text.QHsm_ctor) for [Anonymous Symbol]
    qep_hsm.o(.text.QHsm_init_) refers to os_cpu_a.o(.text) for OS_CPU_SR_Save
    qep_hsm.o(.text.QHsm_init_) refers to qep_hsm.o(.text.QHsm_top) for QHsm_top
    qep_hsm.o(.text.QHsm_init_) refers to qep_hsm.o(.rodata.Q_this_module_) for Q_this_module_
    qep_hsm.o(.text.QHsm_init_) refers to app.o(.text.Q_onError) for Q_onError
    qep_hsm.o(.text.QHsm_init_) refers to qep_hsm.o(.rodata.QEvt_reserved_) for QEvt_reserved_
    qep_hsm.o(.ARM.exidx.text.QHsm_init_) refers to qep_hsm.o(.text.QHsm_init_) for [Anonymous Symbol]
    qep_hsm.o(.text.QHsm_dispatch_) refers to os_cpu_a.o(.text) for OS_CPU_SR_Save
    qep_hsm.o(.text.QHsm_dispatch_) refers to qep_hsm.o(.rodata.Q_this_module_) for Q_this_module_
    qep_hsm.o(.text.QHsm_dispatch_) refers to app.o(.text.Q_onError) for Q_onError
    qep_hsm.o(.text.QHsm_dispatch_) refers to qep_hsm.o(.text.QEvt_verify_) for QEvt_verify_
    qep_hsm.o(.text.QHsm_dispatch_) refers to qep_hsm.o(.rodata.QEvt_reserved_) for QEvt_reserved_
    qep_hsm.o(.text.QHsm_dispatch_) refers to qep_hsm.o(.text.QHsm_tran_) for QHsm_tran_
    qep_hsm.o(.ARM.exidx.text.QHsm_dispatch_) refers to qep_hsm.o(.text.QHsm_dispatch_) for [Anonymous Symbol]
    qep_hsm.o(.ARM.exidx.text.QHsm_top) refers to qep_hsm.o(.text.QHsm_top) for [Anonymous Symbol]
    qep_hsm.o(.ARM.exidx.text.QEvt_verify_) refers to qep_hsm.o(.text.QEvt_verify_) for [Anonymous Symbol]
    qep_hsm.o(.text.QHsm_tran_) refers to qep_hsm.o(.rodata.QEvt_reserved_) for QEvt_reserved_
    qep_hsm.o(.text.QHsm_tran_) refers to os_cpu_a.o(.text) for OS_CPU_SR_Save
    qep_hsm.o(.text.QHsm_tran_) refers to qep_hsm.o(.rodata.Q_this_module_) for Q_this_module_
    qep_hsm.o(.text.QHsm_tran_) refers to app.o(.text.Q_onError) for Q_onError
    qep_hsm.o(.ARM.exidx.text.QHsm_tran_) refers to qep_hsm.o(.text.QHsm_tran_) for [Anonymous Symbol]
    qep_hsm.o(.text.QHsm_isIn) refers to os_cpu_a.o(.text) for OS_CPU_SR_Save
    qep_hsm.o(.text.QHsm_isIn) refers to qep_hsm.o(.rodata.Q_this_module_) for Q_this_module_
    qep_hsm.o(.text.QHsm_isIn) refers to app.o(.text.Q_onError) for Q_onError
    qep_hsm.o(.text.QHsm_isIn) refers to qep_hsm.o(.rodata.QEvt_reserved_) for QEvt_reserved_
    qep_hsm.o(.ARM.exidx.text.QHsm_isIn) refers to qep_hsm.o(.text.QHsm_isIn) for [Anonymous Symbol]
    qep_hsm.o(.text.QHsm_childState) refers to qep_hsm.o(.rodata.QEvt_reserved_) for QEvt_reserved_
    qep_hsm.o(.text.QHsm_childState) refers to os_cpu_a.o(.text) for OS_CPU_SR_Save
    qep_hsm.o(.text.QHsm_childState) refers to qep_hsm.o(.rodata.Q_this_module_) for Q_this_module_
    qep_hsm.o(.text.QHsm_childState) refers to app.o(.text.Q_onError) for Q_onError
    qep_hsm.o(.ARM.exidx.text.QHsm_childState) refers to qep_hsm.o(.text.QHsm_childState) for [Anonymous Symbol]
    qep_hsm.o(.rodata.QHsm_ctor.vtable) refers to qep_hsm.o(.text.QHsm_init_) for QHsm_init_
    qep_hsm.o(.rodata.QHsm_ctor.vtable) refers to qep_hsm.o(.text.QHsm_dispatch_) for QHsm_dispatch_
    qep_msm.o(.text.QMsm_ctor) refers to qep_msm.o(.rodata.QMsm_ctor.vtable) for QMsm_ctor.vtable
    qep_msm.o(.text.QMsm_ctor) refers to qep_msm.o(.rodata.l_msm_top_s) for l_msm_top_s
    qep_msm.o(.ARM.exidx.text.QMsm_ctor) refers to qep_msm.o(.text.QMsm_ctor) for [Anonymous Symbol]
    qep_msm.o(.text.QMsm_init_) refers to os_cpu_a.o(.text) for OS_CPU_SR_Save
    qep_msm.o(.text.QMsm_init_) refers to qep_msm.o(.rodata.l_msm_top_s) for l_msm_top_s
    qep_msm.o(.text.QMsm_init_) refers to qep_msm.o(.rodata.Q_this_module_) for Q_this_module_
    qep_msm.o(.text.QMsm_init_) refers to app.o(.text.Q_onError) for Q_onError
    qep_msm.o(.text.QMsm_init_) refers to qep_msm.o(.text.QMsm_execTatbl_) for QMsm_execTatbl_
    qep_msm.o(.ARM.exidx.text.QMsm_init_) refers to qep_msm.o(.text.QMsm_init_) for [Anonymous Symbol]
    qep_msm.o(.text.QMsm_dispatch_) refers to os_cpu_a.o(.text) for OS_CPU_SR_Save
    qep_msm.o(.text.QMsm_dispatch_) refers to qep_msm.o(.rodata.Q_this_module_) for Q_this_module_
    qep_msm.o(.text.QMsm_dispatch_) refers to app.o(.text.Q_onError) for Q_onError
    qep_msm.o(.text.QMsm_dispatch_) refers to qep_msm.o(.text.QEvt_verify_) for QEvt_verify_
    qep_msm.o(.text.QMsm_dispatch_) refers to qep_msm.o(.text.QMsm_exitToTranSource_) for QMsm_exitToTranSource_
    qep_msm.o(.text.QMsm_dispatch_) refers to qep_msm.o(.text.QMsm_execTatbl_) for QMsm_execTatbl_
    qep_msm.o(.text.QMsm_dispatch_) refers to qep_msm.o(.text.QMsm_enterHistory_) for QMsm_enterHistory_
    qep_msm.o(.ARM.exidx.text.QMsm_dispatch_) refers to qep_msm.o(.text.QMsm_dispatch_) for [Anonymous Symbol]
    qep_msm.o(.text.QMsm_execTatbl_) refers to os_cpu_a.o(.text) for OS_CPU_SR_Save
    qep_msm.o(.text.QMsm_execTatbl_) refers to qep_msm.o(.rodata.Q_this_module_) for Q_this_module_
    qep_msm.o(.text.QMsm_execTatbl_) refers to app.o(.text.Q_onError) for Q_onError
    qep_msm.o(.ARM.exidx.text.QMsm_execTatbl_) refers to qep_msm.o(.text.QMsm_execTatbl_) for [Anonymous Symbol]
    qep_msm.o(.ARM.exidx.text.QEvt_verify_) refers to qep_msm.o(.text.QEvt_verify_) for [Anonymous Symbol]
    qep_msm.o(.text.QMsm_exitToTranSource_) refers to os_cpu_a.o(.text) for OS_CPU_SR_Save
    qep_msm.o(.text.QMsm_exitToTranSource_) refers to qep_msm.o(.rodata.Q_this_module_) for Q_this_module_
    qep_msm.o(.text.QMsm_exitToTranSource_) refers to app.o(.text.Q_onError) for Q_onError
    qep_msm.o(.ARM.exidx.text.QMsm_exitToTranSource_) refers to qep_msm.o(.text.QMsm_exitToTranSource_) for [Anonymous Symbol]
    qep_msm.o(.text.QMsm_enterHistory_) refers to os_cpu_a.o(.text) for OS_CPU_SR_Save
    qep_msm.o(.text.QMsm_enterHistory_) refers to qep_msm.o(.rodata.Q_this_module_) for Q_this_module_
    qep_msm.o(.text.QMsm_enterHistory_) refers to app.o(.text.Q_onError) for Q_onError
    qep_msm.o(.ARM.exidx.text.QMsm_enterHistory_) refers to qep_msm.o(.text.QMsm_enterHistory_) for [Anonymous Symbol]
    qep_msm.o(.ARM.exidx.text.QMsm_isInState) refers to qep_msm.o(.text.QMsm_isInState) for [Anonymous Symbol]
    qep_msm.o(.text.QMsm_childStateObj) refers to os_cpu_a.o(.text) for OS_CPU_SR_Save
    qep_msm.o(.text.QMsm_childStateObj) refers to qep_msm.o(.rodata.Q_this_module_) for Q_this_module_
    qep_msm.o(.text.QMsm_childStateObj) refers to app.o(.text.Q_onError) for Q_onError
    qep_msm.o(.ARM.exidx.text.QMsm_childStateObj) refers to qep_msm.o(.text.QMsm_childStateObj) for [Anonymous Symbol]
    qep_msm.o(.rodata.QMsm_ctor.vtable) refers to qep_msm.o(.text.QMsm_init_) for QMsm_init_
    qep_msm.o(.rodata.QMsm_ctor.vtable) refers to qep_msm.o(.text.QMsm_dispatch_) for QMsm_dispatch_
    qf_act.o(.ARM.exidx.text.QF_bzero_) refers to qf_act.o(.text.QF_bzero_) for [Anonymous Symbol]
    qf_act.o(.text.QF_LOG2) refers to qf_act.o(.rodata.QF_LOG2.log2LUT) for QF_LOG2.log2LUT
    qf_act.o(.ARM.exidx.text.QF_LOG2) refers to qf_act.o(.text.QF_LOG2) for [Anonymous Symbol]
    qf_defer.o(.text.QActive_defer) refers to qf_qeq.o(.text.QEQueue_post) for QEQueue_post
    qf_defer.o(.ARM.exidx.text.QActive_defer) refers to qf_defer.o(.text.QActive_defer) for [Anonymous Symbol]
    qf_defer.o(.text.QActive_recall) refers to qf_qeq.o(.text.QEQueue_get) for QEQueue_get
    qf_defer.o(.text.QActive_recall) refers to qf_port.o(.text.QActive_postLIFO_) for QActive_postLIFO_
    qf_defer.o(.text.QActive_recall) refers to os_cpu_a.o(.text) for OS_CPU_SR_Save
    qf_defer.o(.text.QActive_recall) refers to qf_defer.o(.text.QEvt_getPoolId_) for QEvt_getPoolId_
    qf_defer.o(.text.QActive_recall) refers to qf_defer.o(.rodata.Q_this_module_) for Q_this_module_
    qf_defer.o(.text.QActive_recall) refers to app.o(.text.Q_onError) for Q_onError
    qf_defer.o(.text.QActive_recall) refers to qf_defer.o(.text.QEvt_refCtr_dec_) for QEvt_refCtr_dec_
    qf_defer.o(.ARM.exidx.text.QActive_recall) refers to qf_defer.o(.text.QActive_recall) for [Anonymous Symbol]
    qf_defer.o(.ARM.exidx.text.QEvt_getPoolId_) refers to qf_defer.o(.text.QEvt_getPoolId_) for [Anonymous Symbol]
    qf_defer.o(.ARM.exidx.text.QEvt_refCtr_dec_) refers to qf_defer.o(.text.QEvt_refCtr_dec_) for [Anonymous Symbol]
    qf_defer.o(.text.QActive_flushDeferred) refers to qf_qeq.o(.text.QEQueue_get) for QEQueue_get
    qf_defer.o(.text.QActive_flushDeferred) refers to qf_dyn.o(.text.QF_gc) for QF_gc
    qf_defer.o(.ARM.exidx.text.QActive_flushDeferred) refers to qf_defer.o(.text.QActive_flushDeferred) for [Anonymous Symbol]
    qf_dyn.o(.text.QF_poolInit) refers to qf_act.o(.bss.QF_priv_) for QF_priv_
    qf_dyn.o(.text.QF_poolInit) refers to os_cpu_a.o(.text) for OS_CPU_SR_Save
    qf_dyn.o(.text.QF_poolInit) refers to qf_dyn.o(.rodata.Q_this_module_) for Q_this_module_
    qf_dyn.o(.text.QF_poolInit) refers to app.o(.text.Q_onError) for Q_onError
    qf_dyn.o(.text.QF_poolInit) refers to qf_mem.o(.text.QMPool_init) for QMPool_init
    qf_dyn.o(.ARM.exidx.text.QF_poolInit) refers to qf_dyn.o(.text.QF_poolInit) for [Anonymous Symbol]
    qf_dyn.o(.text.QF_poolGetMaxBlockSize) refers to qf_act.o(.bss.QF_priv_) for QF_priv_
    qf_dyn.o(.ARM.exidx.text.QF_poolGetMaxBlockSize) refers to qf_dyn.o(.text.QF_poolGetMaxBlockSize) for [Anonymous Symbol]
    qf_dyn.o(.text.QF_getPoolMin) refers to os_cpu_a.o(.text) for OS_CPU_SR_Save
    qf_dyn.o(.text.QF_getPoolMin) refers to qf_act.o(.bss.QF_priv_) for QF_priv_
    qf_dyn.o(.text.QF_getPoolMin) refers to qf_dyn.o(.rodata.Q_this_module_) for Q_this_module_
    qf_dyn.o(.text.QF_getPoolMin) refers to app.o(.text.Q_onError) for Q_onError
    qf_dyn.o(.ARM.exidx.text.QF_getPoolMin) refers to qf_dyn.o(.text.QF_getPoolMin) for [Anonymous Symbol]
    qf_dyn.o(.text.QF_newX_) refers to os_cpu_a.o(.text) for OS_CPU_SR_Save
    qf_dyn.o(.text.QF_newX_) refers to qf_act.o(.bss.QF_priv_) for QF_priv_
    qf_dyn.o(.text.QF_newX_) refers to qf_dyn.o(.rodata.Q_this_module_) for Q_this_module_
    qf_dyn.o(.text.QF_newX_) refers to app.o(.text.Q_onError) for Q_onError
    qf_dyn.o(.text.QF_newX_) refers to qf_mem.o(.text.QMPool_get) for QMPool_get
    qf_dyn.o(.ARM.exidx.text.QF_newX_) refers to qf_dyn.o(.text.QF_newX_) for [Anonymous Symbol]
    qf_dyn.o(.text.QF_gc) refers to os_cpu_a.o(.text) for OS_CPU_SR_Save
    qf_dyn.o(.text.QF_gc) refers to qf_dyn.o(.text.QEvt_verify_) for QEvt_verify_
    qf_dyn.o(.text.QF_gc) refers to qf_dyn.o(.rodata.Q_this_module_) for Q_this_module_
    qf_dyn.o(.text.QF_gc) refers to app.o(.text.Q_onError) for Q_onError
    qf_dyn.o(.text.QF_gc) refers to qf_dyn.o(.text.QEvt_getPoolId_) for QEvt_getPoolId_
    qf_dyn.o(.text.QF_gc) refers to qf_dyn.o(.text.QEvt_refCtr_dec_) for QEvt_refCtr_dec_
    qf_dyn.o(.text.QF_gc) refers to qf_act.o(.bss.QF_priv_) for QF_priv_
    qf_dyn.o(.text.QF_gc) refers to qf_mem.o(.text.QMPool_put) for QMPool_put
    qf_dyn.o(.ARM.exidx.text.QF_gc) refers to qf_dyn.o(.text.QF_gc) for [Anonymous Symbol]
    qf_dyn.o(.ARM.exidx.text.QEvt_verify_) refers to qf_dyn.o(.text.QEvt_verify_) for [Anonymous Symbol]
    qf_dyn.o(.ARM.exidx.text.QEvt_getPoolId_) refers to qf_dyn.o(.text.QEvt_getPoolId_) for [Anonymous Symbol]
    qf_dyn.o(.ARM.exidx.text.QEvt_refCtr_dec_) refers to qf_dyn.o(.text.QEvt_refCtr_dec_) for [Anonymous Symbol]
    qf_dyn.o(.text.QF_newRef_) refers to os_cpu_a.o(.text) for OS_CPU_SR_Save
    qf_dyn.o(.text.QF_newRef_) refers to qf_dyn.o(.text.QEvt_verify_) for QEvt_verify_
    qf_dyn.o(.text.QF_newRef_) refers to qf_dyn.o(.rodata.Q_this_module_) for Q_this_module_
    qf_dyn.o(.text.QF_newRef_) refers to app.o(.text.Q_onError) for Q_onError
    qf_dyn.o(.text.QF_newRef_) refers to qf_dyn.o(.text.QEvt_getPoolId_) for QEvt_getPoolId_
    qf_dyn.o(.text.QF_newRef_) refers to qf_dyn.o(.text.QEvt_refCtr_inc_) for QEvt_refCtr_inc_
    qf_dyn.o(.ARM.exidx.text.QF_newRef_) refers to qf_dyn.o(.text.QF_newRef_) for [Anonymous Symbol]
    qf_dyn.o(.ARM.exidx.text.QEvt_refCtr_inc_) refers to qf_dyn.o(.text.QEvt_refCtr_inc_) for [Anonymous Symbol]
    qf_dyn.o(.text.QF_deleteRef_) refers to os_cpu_a.o(.text) for OS_CPU_SR_Save
    qf_dyn.o(.text.QF_deleteRef_) refers to qf_dyn.o(.text.QEvt_verify_) for QEvt_verify_
    qf_dyn.o(.text.QF_deleteRef_) refers to qf_dyn.o(.rodata.Q_this_module_) for Q_this_module_
    qf_dyn.o(.text.QF_deleteRef_) refers to app.o(.text.Q_onError) for Q_onError
    qf_dyn.o(.text.QF_deleteRef_) refers to qf_dyn.o(.text.QF_gc) for QF_gc
    qf_dyn.o(.ARM.exidx.text.QF_deleteRef_) refers to qf_dyn.o(.text.QF_deleteRef_) for [Anonymous Symbol]
    qf_mem.o(.text.QMPool_init) refers to os_cpu_a.o(.text) for OS_CPU_SR_Save
    qf_mem.o(.text.QMPool_init) refers to qf_mem.o(.rodata.Q_this_module_) for Q_this_module_
    qf_mem.o(.text.QMPool_init) refers to app.o(.text.Q_onError) for Q_onError
    qf_mem.o(.ARM.exidx.text.QMPool_init) refers to qf_mem.o(.text.QMPool_init) for [Anonymous Symbol]
    qf_mem.o(.text.QMPool_get) refers to os_cpu_a.o(.text) for OS_CPU_SR_Save
    qf_mem.o(.text.QMPool_get) refers to qf_mem.o(.rodata.Q_this_module_) for Q_this_module_
    qf_mem.o(.text.QMPool_get) refers to app.o(.text.Q_onError) for Q_onError
    qf_mem.o(.ARM.exidx.text.QMPool_get) refers to qf_mem.o(.text.QMPool_get) for [Anonymous Symbol]
    qf_mem.o(.text.QMPool_put) refers to os_cpu_a.o(.text) for OS_CPU_SR_Save
    qf_mem.o(.text.QMPool_put) refers to qf_mem.o(.rodata.Q_this_module_) for Q_this_module_
    qf_mem.o(.text.QMPool_put) refers to app.o(.text.Q_onError) for Q_onError
    qf_mem.o(.ARM.exidx.text.QMPool_put) refers to qf_mem.o(.text.QMPool_put) for [Anonymous Symbol]
    qf_ps.o(.text.QActive_psInit) refers to qf_ps.o(.bss.QActive_subscrList_) for QActive_subscrList_
    qf_ps.o(.text.QActive_psInit) refers to qf_ps.o(.bss.QActive_maxPubSignal_) for QActive_maxPubSignal_
    qf_ps.o(.text.QActive_psInit) refers to qf_ps.o(.text.QPSet_setEmpty) for QPSet_setEmpty
    qf_ps.o(.text.QActive_psInit) refers to qf_ps.o(.text.QPSet_update_) for QPSet_update_
    qf_ps.o(.ARM.exidx.text.QActive_psInit) refers to qf_ps.o(.text.QActive_psInit) for [Anonymous Symbol]
    qf_ps.o(.ARM.exidx.text.QPSet_setEmpty) refers to qf_ps.o(.text.QPSet_setEmpty) for [Anonymous Symbol]
    qf_ps.o(.ARM.exidx.text.QPSet_update_) refers to qf_ps.o(.text.QPSet_update_) for [Anonymous Symbol]
    qf_ps.o(.text.QActive_publish_) refers to os_cpu_a.o(.text) for OS_CPU_SR_Save
    qf_ps.o(.text.QActive_publish_) refers to qf_ps.o(.bss.QActive_maxPubSignal_) for QActive_maxPubSignal_
    qf_ps.o(.text.QActive_publish_) refers to qf_ps.o(.rodata.Q_this_module_) for Q_this_module_
    qf_ps.o(.text.QActive_publish_) refers to app.o(.text.Q_onError) for Q_onError
    qf_ps.o(.text.QActive_publish_) refers to qf_ps.o(.bss.QActive_subscrList_) for QActive_subscrList_
    qf_ps.o(.text.QActive_publish_) refers to qf_ps.o(.text.QPSet_verify_) for QPSet_verify_
    qf_ps.o(.text.QActive_publish_) refers to qf_ps.o(.text.QEvt_getPoolId_) for QEvt_getPoolId_
    qf_ps.o(.text.QActive_publish_) refers to qf_ps.o(.text.QEvt_refCtr_inc_) for QEvt_refCtr_inc_
    qf_ps.o(.text.QActive_publish_) refers to qf_ps.o(.text.QPSet_notEmpty) for QPSet_notEmpty
    qf_ps.o(.text.QActive_publish_) refers to qf_ps.o(.text.QPSet_findMax) for QPSet_findMax
    qf_ps.o(.text.QActive_publish_) refers to qf_act.o(.bss.QActive_registry_) for QActive_registry_
    qf_ps.o(.text.QActive_publish_) refers to os_core.o(.bss.OSIntNesting) for OSIntNesting
    qf_ps.o(.text.QActive_publish_) refers to os_core.o(.text.OSSchedLock) for OSSchedLock
    qf_ps.o(.text.QActive_publish_) refers to qf_port.o(.text.QActive_post_) for QActive_post_
    qf_ps.o(.text.QActive_publish_) refers to qf_ps.o(.text.QPSet_remove) for QPSet_remove
    qf_ps.o(.text.QActive_publish_) refers to os_core.o(.text.OSSchedUnlock) for OSSchedUnlock
    qf_ps.o(.text.QActive_publish_) refers to qf_dyn.o(.text.QF_gc) for QF_gc
    qf_ps.o(.ARM.exidx.text.QActive_publish_) refers to qf_ps.o(.text.QActive_publish_) for [Anonymous Symbol]
    qf_ps.o(.ARM.exidx.text.QPSet_verify_) refers to qf_ps.o(.text.QPSet_verify_) for [Anonymous Symbol]
    qf_ps.o(.ARM.exidx.text.QEvt_getPoolId_) refers to qf_ps.o(.text.QEvt_getPoolId_) for [Anonymous Symbol]
    qf_ps.o(.ARM.exidx.text.QEvt_refCtr_inc_) refers to qf_ps.o(.text.QEvt_refCtr_inc_) for [Anonymous Symbol]
    qf_ps.o(.ARM.exidx.text.QPSet_notEmpty) refers to qf_ps.o(.text.QPSet_notEmpty) for [Anonymous Symbol]
    qf_ps.o(.text.QPSet_findMax) refers to qf_act.o(.text.QF_LOG2) for QF_LOG2
    qf_ps.o(.ARM.exidx.text.QPSet_findMax) refers to qf_ps.o(.text.QPSet_findMax) for [Anonymous Symbol]
    qf_ps.o(.ARM.exidx.text.QPSet_remove) refers to qf_ps.o(.text.QPSet_remove) for [Anonymous Symbol]
    qf_ps.o(.text.QActive_subscribe) refers to os_cpu_a.o(.text) for OS_CPU_SR_Save
    qf_ps.o(.text.QActive_subscribe) refers to qf_ps.o(.bss.QActive_maxPubSignal_) for QActive_maxPubSignal_
    qf_ps.o(.text.QActive_subscribe) refers to qf_act.o(.bss.QActive_registry_) for QActive_registry_
    qf_ps.o(.text.QActive_subscribe) refers to qf_ps.o(.rodata.Q_this_module_) for Q_this_module_
    qf_ps.o(.text.QActive_subscribe) refers to app.o(.text.Q_onError) for Q_onError
    qf_ps.o(.text.QActive_subscribe) refers to qf_ps.o(.bss.QActive_subscrList_) for QActive_subscrList_
    qf_ps.o(.text.QActive_subscribe) refers to qf_ps.o(.text.QPSet_verify_) for QPSet_verify_
    qf_ps.o(.text.QActive_subscribe) refers to qf_ps.o(.text.QPSet_insert) for QPSet_insert
    qf_ps.o(.text.QActive_subscribe) refers to qf_ps.o(.text.QPSet_update_) for QPSet_update_
    qf_ps.o(.ARM.exidx.text.QActive_subscribe) refers to qf_ps.o(.text.QActive_subscribe) for [Anonymous Symbol]
    qf_ps.o(.ARM.exidx.text.QPSet_insert) refers to qf_ps.o(.text.QPSet_insert) for [Anonymous Symbol]
    qf_ps.o(.text.QActive_unsubscribe) refers to os_cpu_a.o(.text) for OS_CPU_SR_Save
    qf_ps.o(.text.QActive_unsubscribe) refers to qf_ps.o(.bss.QActive_maxPubSignal_) for QActive_maxPubSignal_
    qf_ps.o(.text.QActive_unsubscribe) refers to qf_act.o(.bss.QActive_registry_) for QActive_registry_
    qf_ps.o(.text.QActive_unsubscribe) refers to qf_ps.o(.rodata.Q_this_module_) for Q_this_module_
    qf_ps.o(.text.QActive_unsubscribe) refers to app.o(.text.Q_onError) for Q_onError
    qf_ps.o(.text.QActive_unsubscribe) refers to qf_ps.o(.bss.QActive_subscrList_) for QActive_subscrList_
    qf_ps.o(.text.QActive_unsubscribe) refers to qf_ps.o(.text.QPSet_verify_) for QPSet_verify_
    qf_ps.o(.text.QActive_unsubscribe) refers to qf_ps.o(.text.QPSet_remove) for QPSet_remove
    qf_ps.o(.text.QActive_unsubscribe) refers to qf_ps.o(.text.QPSet_update_) for QPSet_update_
    qf_ps.o(.ARM.exidx.text.QActive_unsubscribe) refers to qf_ps.o(.text.QActive_unsubscribe) for [Anonymous Symbol]
    qf_ps.o(.text.QActive_unsubscribeAll) refers to os_cpu_a.o(.text) for OS_CPU_SR_Save
    qf_ps.o(.text.QActive_unsubscribeAll) refers to qf_act.o(.bss.QActive_registry_) for QActive_registry_
    qf_ps.o(.text.QActive_unsubscribeAll) refers to qf_ps.o(.rodata.Q_this_module_) for Q_this_module_
    qf_ps.o(.text.QActive_unsubscribeAll) refers to app.o(.text.Q_onError) for Q_onError
    qf_ps.o(.text.QActive_unsubscribeAll) refers to qf_ps.o(.bss.QActive_maxPubSignal_) for QActive_maxPubSignal_
    qf_ps.o(.text.QActive_unsubscribeAll) refers to qf_ps.o(.bss.QActive_subscrList_) for QActive_subscrList_
    qf_ps.o(.text.QActive_unsubscribeAll) refers to qf_ps.o(.text.QPSet_hasElement) for QPSet_hasElement
    qf_ps.o(.text.QActive_unsubscribeAll) refers to qf_ps.o(.text.QPSet_remove) for QPSet_remove
    qf_ps.o(.text.QActive_unsubscribeAll) refers to qf_ps.o(.text.QPSet_update_) for QPSet_update_
    qf_ps.o(.ARM.exidx.text.QActive_unsubscribeAll) refers to qf_ps.o(.text.QActive_unsubscribeAll) for [Anonymous Symbol]
    qf_ps.o(.ARM.exidx.text.QPSet_hasElement) refers to qf_ps.o(.text.QPSet_hasElement) for [Anonymous Symbol]
    qf_qact.o(.text.QActive_ctor) refers to qf_act.o(.text.QF_bzero_) for QF_bzero_
    qf_qact.o(.text.QActive_ctor) refers to qep_hsm.o(.text.QHsm_ctor) for QHsm_ctor
    qf_qact.o(.text.QActive_ctor) refers to qf_qact.o(.rodata.QActive_ctor.vtable) for QActive_ctor.vtable
    qf_qact.o(.ARM.exidx.text.QActive_ctor) refers to qf_qact.o(.text.QActive_ctor) for [Anonymous Symbol]
    qf_qact.o(.text.QActive_register_) refers to os_cpu_a.o(.text) for OS_CPU_SR_Save
    qf_qact.o(.text.QActive_register_) refers to qf_act.o(.bss.QActive_registry_) for QActive_registry_
    qf_qact.o(.text.QActive_register_) refers to qf_qact.o(.rodata.Q_this_module_) for Q_this_module_
    qf_qact.o(.text.QActive_register_) refers to app.o(.text.Q_onError) for Q_onError
    qf_qact.o(.ARM.exidx.text.QActive_register_) refers to qf_qact.o(.text.QActive_register_) for [Anonymous Symbol]
    qf_qact.o(.text.QActive_unregister_) refers to os_cpu_a.o(.text) for OS_CPU_SR_Save
    qf_qact.o(.text.QActive_unregister_) refers to qf_act.o(.bss.QActive_registry_) for QActive_registry_
    qf_qact.o(.text.QActive_unregister_) refers to qf_qact.o(.rodata.Q_this_module_) for Q_this_module_
    qf_qact.o(.text.QActive_unregister_) refers to app.o(.text.Q_onError) for Q_onError
    qf_qact.o(.ARM.exidx.text.QActive_unregister_) refers to qf_qact.o(.text.QActive_unregister_) for [Anonymous Symbol]
    qf_qact.o(.rodata.QActive_ctor.vtable) refers to qep_hsm.o(.text.QHsm_init_) for QHsm_init_
    qf_qact.o(.rodata.QActive_ctor.vtable) refers to qep_hsm.o(.text.QHsm_dispatch_) for QHsm_dispatch_
    qf_qeq.o(.ARM.exidx.text.QEQueue_init) refers to qf_qeq.o(.text.QEQueue_init) for [Anonymous Symbol]
    qf_qeq.o(.text.QEQueue_post) refers to os_cpu_a.o(.text) for OS_CPU_SR_Save
    qf_qeq.o(.text.QEQueue_post) refers to qf_qeq.o(.rodata.Q_this_module_) for Q_this_module_
    qf_qeq.o(.text.QEQueue_post) refers to app.o(.text.Q_onError) for Q_onError
    qf_qeq.o(.text.QEQueue_post) refers to qf_qeq.o(.text.QEvt_getPoolId_) for QEvt_getPoolId_
    qf_qeq.o(.text.QEQueue_post) refers to qf_qeq.o(.text.QEvt_refCtr_inc_) for QEvt_refCtr_inc_
    qf_qeq.o(.ARM.exidx.text.QEQueue_post) refers to qf_qeq.o(.text.QEQueue_post) for [Anonymous Symbol]
    qf_qeq.o(.ARM.exidx.text.QEvt_getPoolId_) refers to qf_qeq.o(.text.QEvt_getPoolId_) for [Anonymous Symbol]
    qf_qeq.o(.ARM.exidx.text.QEvt_refCtr_inc_) refers to qf_qeq.o(.text.QEvt_refCtr_inc_) for [Anonymous Symbol]
    qf_qeq.o(.text.QEQueue_postLIFO) refers to os_cpu_a.o(.text) for OS_CPU_SR_Save
    qf_qeq.o(.text.QEQueue_postLIFO) refers to qf_qeq.o(.rodata.Q_this_module_) for Q_this_module_
    qf_qeq.o(.text.QEQueue_postLIFO) refers to app.o(.text.Q_onError) for Q_onError
    qf_qeq.o(.text.QEQueue_postLIFO) refers to qf_qeq.o(.text.QEvt_getPoolId_) for QEvt_getPoolId_
    qf_qeq.o(.text.QEQueue_postLIFO) refers to qf_qeq.o(.text.QEvt_refCtr_inc_) for QEvt_refCtr_inc_
    qf_qeq.o(.ARM.exidx.text.QEQueue_postLIFO) refers to qf_qeq.o(.text.QEQueue_postLIFO) for [Anonymous Symbol]
    qf_qeq.o(.text.QEQueue_get) refers to os_cpu_a.o(.text) for OS_CPU_SR_Save
    qf_qeq.o(.text.QEQueue_get) refers to qf_qeq.o(.rodata.Q_this_module_) for Q_this_module_
    qf_qeq.o(.text.QEQueue_get) refers to app.o(.text.Q_onError) for Q_onError
    qf_qeq.o(.ARM.exidx.text.QEQueue_get) refers to qf_qeq.o(.text.QEQueue_get) for [Anonymous Symbol]
    qf_qmact.o(.text.QMActive_ctor) refers to qf_act.o(.text.QF_bzero_) for QF_bzero_
    qf_qmact.o(.text.QMActive_ctor) refers to qep_msm.o(.text.QMsm_ctor) for QMsm_ctor
    qf_qmact.o(.text.QMActive_ctor) refers to qf_qmact.o(.rodata.QMActive_ctor.vtable) for QMActive_ctor.vtable
    qf_qmact.o(.ARM.exidx.text.QMActive_ctor) refers to qf_qmact.o(.text.QMActive_ctor) for [Anonymous Symbol]
    qf_qmact.o(.rodata.QMActive_ctor.vtable) refers to qep_msm.o(.text.QMsm_init_) for QMsm_init_
    qf_qmact.o(.rodata.QMActive_ctor.vtable) refers to qep_msm.o(.text.QMsm_dispatch_) for QMsm_dispatch_
    qf_time.o(.text.QTimeEvt_ctorX) refers to os_cpu_a.o(.text) for OS_CPU_SR_Save
    qf_time.o(.text.QTimeEvt_ctorX) refers to qf_time.o(.rodata.Q_this_module_) for Q_this_module_
    qf_time.o(.text.QTimeEvt_ctorX) refers to app.o(.text.Q_onError) for Q_onError
    qf_time.o(.text.QTimeEvt_ctorX) refers to qf_time.o(.text.QEvt_ctor) for QEvt_ctor
    qf_time.o(.ARM.exidx.text.QTimeEvt_ctorX) refers to qf_time.o(.text.QTimeEvt_ctorX) for [Anonymous Symbol]
    qf_time.o(.ARM.exidx.text.QEvt_ctor) refers to qf_time.o(.text.QEvt_ctor) for [Anonymous Symbol]
    qf_time.o(.text.QTimeEvt_armX) refers to os_cpu_a.o(.text) for OS_CPU_SR_Save
    qf_time.o(.text.QTimeEvt_armX) refers to qf_time.o(.rodata.Q_this_module_) for Q_this_module_
    qf_time.o(.text.QTimeEvt_armX) refers to app.o(.text.Q_onError) for Q_onError
    qf_time.o(.text.QTimeEvt_armX) refers to qf_time.o(.bss.QTimeEvt_timeEvtHead_) for QTimeEvt_timeEvtHead_
    qf_time.o(.ARM.exidx.text.QTimeEvt_armX) refers to qf_time.o(.text.QTimeEvt_armX) for [Anonymous Symbol]
    qf_time.o(.text.QTimeEvt_disarm) refers to os_cpu_a.o(.text) for OS_CPU_SR_Save
    qf_time.o(.ARM.exidx.text.QTimeEvt_disarm) refers to qf_time.o(.text.QTimeEvt_disarm) for [Anonymous Symbol]
    qf_time.o(.text.QTimeEvt_rearm) refers to os_cpu_a.o(.text) for OS_CPU_SR_Save
    qf_time.o(.text.QTimeEvt_rearm) refers to qf_time.o(.rodata.Q_this_module_) for Q_this_module_
    qf_time.o(.text.QTimeEvt_rearm) refers to app.o(.text.Q_onError) for Q_onError
    qf_time.o(.text.QTimeEvt_rearm) refers to qf_time.o(.bss.QTimeEvt_timeEvtHead_) for QTimeEvt_timeEvtHead_
    qf_time.o(.ARM.exidx.text.QTimeEvt_rearm) refers to qf_time.o(.text.QTimeEvt_rearm) for [Anonymous Symbol]
    qf_time.o(.text.QTimeEvt_wasDisarmed) refers to os_cpu_a.o(.text) for OS_CPU_SR_Save
    qf_time.o(.ARM.exidx.text.QTimeEvt_wasDisarmed) refers to qf_time.o(.text.QTimeEvt_wasDisarmed) for [Anonymous Symbol]
    qf_time.o(.text.QTimeEvt_currCtr) refers to os_cpu_a.o(.text) for OS_CPU_SR_Save
    qf_time.o(.ARM.exidx.text.QTimeEvt_currCtr) refers to qf_time.o(.text.QTimeEvt_currCtr) for [Anonymous Symbol]
    qf_time.o(.text.QTimeEvt_tick_) refers to qf_time.o(.bss.QTimeEvt_timeEvtHead_) for QTimeEvt_timeEvtHead_
    qf_time.o(.text.QTimeEvt_tick_) refers to os_cpu_a.o(.text) for OS_CPU_SR_Save
    qf_time.o(.text.QTimeEvt_tick_) refers to qf_time.o(.rodata.Q_this_module_) for Q_this_module_
    qf_time.o(.text.QTimeEvt_tick_) refers to app.o(.text.Q_onError) for Q_onError
    qf_time.o(.text.QTimeEvt_tick_) refers to qf_port.o(.text.QActive_post_) for QActive_post_
    qf_time.o(.ARM.exidx.text.QTimeEvt_tick_) refers to qf_time.o(.text.QTimeEvt_tick_) for [Anonymous Symbol]
    qf_time.o(.text.QTimeEvt_noActive) refers to os_cpu_a.o(.text) for OS_CPU_SR_Save
    qf_time.o(.text.QTimeEvt_noActive) refers to qf_time.o(.rodata.Q_this_module_) for Q_this_module_
    qf_time.o(.text.QTimeEvt_noActive) refers to app.o(.text.Q_onError) for Q_onError
    qf_time.o(.text.QTimeEvt_noActive) refers to qf_time.o(.bss.QTimeEvt_timeEvtHead_) for QTimeEvt_timeEvtHead_
    qf_time.o(.ARM.exidx.text.QTimeEvt_noActive) refers to qf_time.o(.text.QTimeEvt_noActive) for [Anonymous Symbol]
    qf_port.o(.text.QF_init) refers to os_core.o(.text.OSInit) for OSInit
    qf_port.o(.ARM.exidx.text.QF_init) refers to qf_port.o(.text.QF_init) for [Anonymous Symbol]
    qf_port.o(.text.QF_run) refers to app.o(.text.QF_onStartup) for QF_onStartup
    qf_port.o(.text.QF_run) refers to os_core.o(.text.OSStart) for OSStart
    qf_port.o(.ARM.exidx.text.QF_run) refers to qf_port.o(.text.QF_run) for [Anonymous Symbol]
    qf_port.o(.text.QF_stop) refers to app.o(.text.QF_onCleanup) for QF_onCleanup
    qf_port.o(.ARM.exidx.text.QF_stop) refers to qf_port.o(.text.QF_stop) for [Anonymous Symbol]
    qf_port.o(.text.QActive_start_) refers to os_q.o(.text.OSQCreate) for OSQCreate
    qf_port.o(.text.QActive_start_) refers to os_cpu_a.o(.text) for OS_CPU_SR_Save
    qf_port.o(.text.QActive_start_) refers to qf_port.o(.rodata.Q_this_module_) for Q_this_module_
    qf_port.o(.text.QActive_start_) refers to app.o(.text.Q_onError) for Q_onError
    qf_port.o(.text.QActive_start_) refers to qf_qact.o(.text.QActive_register_) for QActive_register_
    qf_port.o(.text.QActive_start_) refers to qf_port.o(.text.task_function) for task_function
    qf_port.o(.text.QActive_start_) refers to os_task.o(.text.OSTaskCreateExt) for OSTaskCreateExt
    qf_port.o(.ARM.exidx.text.QActive_start_) refers to qf_port.o(.text.QActive_start_) for [Anonymous Symbol]
    qf_port.o(.text.task_function) refers to qf_port.o(.text.QActive_get_) for QActive_get_
    qf_port.o(.text.task_function) refers to qf_dyn.o(.text.QF_gc) for QF_gc
    qf_port.o(.ARM.exidx.text.task_function) refers to qf_port.o(.text.task_function) for [Anonymous Symbol]
    qf_port.o(.text.QActive_setAttr) refers to os_cpu_a.o(.text) for OS_CPU_SR_Save
    qf_port.o(.text.QActive_setAttr) refers to qf_port.o(.rodata.Q_this_module_) for Q_this_module_
    qf_port.o(.text.QActive_setAttr) refers to app.o(.text.Q_onError) for Q_onError
    qf_port.o(.ARM.exidx.text.QActive_setAttr) refers to qf_port.o(.text.QActive_setAttr) for [Anonymous Symbol]
    qf_port.o(.text.QActive_post_) refers to os_cpu_a.o(.text) for OS_CPU_SR_Save
    qf_port.o(.text.QActive_post_) refers to qf_port.o(.rodata.Q_this_module_) for Q_this_module_
    qf_port.o(.text.QActive_post_) refers to app.o(.text.Q_onError) for Q_onError
    qf_port.o(.text.QActive_post_) refers to qf_port.o(.text.QEvt_getPoolId_) for QEvt_getPoolId_
    qf_port.o(.text.QActive_post_) refers to qf_port.o(.text.QEvt_refCtr_inc_) for QEvt_refCtr_inc_
    qf_port.o(.text.QActive_post_) refers to os_q.o(.text.OSQPost) for OSQPost
    qf_port.o(.ARM.exidx.text.QActive_post_) refers to qf_port.o(.text.QActive_post_) for [Anonymous Symbol]
    qf_port.o(.ARM.exidx.text.QEvt_getPoolId_) refers to qf_port.o(.text.QEvt_getPoolId_) for [Anonymous Symbol]
    qf_port.o(.ARM.exidx.text.QEvt_refCtr_inc_) refers to qf_port.o(.text.QEvt_refCtr_inc_) for [Anonymous Symbol]
    qf_port.o(.text.QActive_postLIFO_) refers to os_cpu_a.o(.text) for OS_CPU_SR_Save
    qf_port.o(.text.QActive_postLIFO_) refers to qf_port.o(.text.QEvt_getPoolId_) for QEvt_getPoolId_
    qf_port.o(.text.QActive_postLIFO_) refers to qf_port.o(.text.QEvt_refCtr_inc_) for QEvt_refCtr_inc_
    qf_port.o(.text.QActive_postLIFO_) refers to os_q.o(.text.OSQPostFront) for OSQPostFront
    qf_port.o(.text.QActive_postLIFO_) refers to qf_port.o(.rodata.Q_this_module_) for Q_this_module_
    qf_port.o(.text.QActive_postLIFO_) refers to app.o(.text.Q_onError) for Q_onError
    qf_port.o(.ARM.exidx.text.QActive_postLIFO_) refers to qf_port.o(.text.QActive_postLIFO_) for [Anonymous Symbol]
    qf_port.o(.text.QActive_get_) refers to os_q.o(.text.OSQPend) for OSQPend
    qf_port.o(.text.QActive_get_) refers to os_cpu_a.o(.text) for OS_CPU_SR_Save
    qf_port.o(.text.QActive_get_) refers to qf_port.o(.rodata.Q_this_module_) for Q_this_module_
    qf_port.o(.text.QActive_get_) refers to app.o(.text.Q_onError) for Q_onError
    qf_port.o(.ARM.exidx.text.QActive_get_) refers to qf_port.o(.text.QActive_get_) for [Anonymous Symbol]
    retarget_io.o(.ARM.exidx.text.ITM_SendChar) refers to retarget_io.o(.text.ITM_SendChar) for [Anonymous Symbol]
    retarget_io.o(.text.ITM_ReceiveChar) refers to retarget_io.o(.data.ITM_RxBuffer) for ITM_RxBuffer
    retarget_io.o(.ARM.exidx.text.ITM_ReceiveChar) refers to retarget_io.o(.text.ITM_ReceiveChar) for [Anonymous Symbol]
    retarget_io.o(.text._sys_open) refers to retarget_io.o(.rodata.str1.1) for .L.str
    retarget_io.o(.text._sys_open) refers to strcmpv7em.o(.text) for strcmp
    retarget_io.o(.ARM.exidx.text._sys_open) refers to retarget_io.o(.text._sys_open) for [Anonymous Symbol]
    retarget_io.o(.ARM.exidx.text._sys_close) refers to retarget_io.o(.text._sys_close) for [Anonymous Symbol]
    retarget_io.o(.text._sys_write) refers to retarget_io.o(.text.stdout_putchar) for stdout_putchar
    retarget_io.o(.ARM.exidx.text._sys_write) refers to retarget_io.o(.text._sys_write) for [Anonymous Symbol]
    retarget_io.o(.text.stdout_putchar) refers to retarget_io.o(.text.ITM_SendChar) for ITM_SendChar
    retarget_io.o(.ARM.exidx.text.stdout_putchar) refers to retarget_io.o(.text.stdout_putchar) for [Anonymous Symbol]
    retarget_io.o(.ARM.exidx.text._sys_read) refers to retarget_io.o(.text._sys_read) for [Anonymous Symbol]
    retarget_io.o(.ARM.exidx.text._sys_istty) refers to retarget_io.o(.text._sys_istty) for [Anonymous Symbol]
    retarget_io.o(.ARM.exidx.text._sys_seek) refers to retarget_io.o(.text._sys_seek) for [Anonymous Symbol]
    retarget_io.o(.ARM.exidx.text._sys_flen) refers to retarget_io.o(.text._sys_flen) for [Anonymous Symbol]
    startup_stm32f411xe.o(STACK) refers (Special) to heapauxi.o(.text) for __use_two_region_memory
    startup_stm32f411xe.o(HEAP) refers (Special) to heapauxi.o(.text) for __use_two_region_memory
    startup_stm32f411xe.o(RESET) refers (Special) to heapauxi.o(.text) for __use_two_region_memory
    startup_stm32f411xe.o(RESET) refers to startup_stm32f411xe.o(STACK) for __initial_sp
    startup_stm32f411xe.o(RESET) refers to startup_stm32f411xe.o(.text) for Reset_Handler
    startup_stm32f411xe.o(RESET) refers to stm32f4xx_it.o(.text.NMI_Handler) for NMI_Handler
    startup_stm32f411xe.o(RESET) refers to stm32f4xx_it.o(.text.HardFault_Handler) for HardFault_Handler
    startup_stm32f411xe.o(RESET) refers to stm32f4xx_it.o(.text.MemManage_Handler) for MemManage_Handler
    startup_stm32f411xe.o(RESET) refers to stm32f4xx_it.o(.text.BusFault_Handler) for BusFault_Handler
    startup_stm32f411xe.o(RESET) refers to stm32f4xx_it.o(.text.UsageFault_Handler) for UsageFault_Handler
    startup_stm32f411xe.o(RESET) refers to stm32f4xx_it.o(.text.SVC_Handler) for SVC_Handler
    startup_stm32f411xe.o(RESET) refers to stm32f4xx_it.o(.text.DebugMon_Handler) for DebugMon_Handler
    startup_stm32f411xe.o(RESET) refers to os_cpu_a.o(.text) for OS_CPU_PendSVHandler
    startup_stm32f411xe.o(RESET) refers to os_cpu_c.o(.text.OS_CPU_SysTickHandler) for OS_CPU_SysTickHandler
    startup_stm32f411xe.o(RESET) refers to stm32f4xx_it.o(.text.EXTI0_IRQHandler) for EXTI0_IRQHandler
    startup_stm32f411xe.o(RESET) refers to stm32f4xx_it.o(.text.EXTI15_10_IRQHandler) for EXTI15_10_IRQHandler
    startup_stm32f411xe.o(RESET) refers to bsp_spi.o(.text.DMA2_Stream2_IRQHandler) for DMA2_Stream2_IRQHandler
    startup_stm32f411xe.o(RESET) refers to bsp_spi.o(.text.DMA2_Stream3_IRQHandler) for DMA2_Stream3_IRQHandler
    startup_stm32f411xe.o(RESET) refers to stm32f4xx_it.o(.text.OTG_FS_IRQHandler) for OTG_FS_IRQHandler
    startup_stm32f411xe.o(.text) refers (Special) to heapauxi.o(.text) for __use_two_region_memory
    startup_stm32f411xe.o(.text) refers to system_stm32f4xx.o(.text.SystemInit) for SystemInit
    startup_stm32f411xe.o(.text) refers to __main.o(!!!main) for __main
    startup_stm32f411xe.o(.text) refers to startup_stm32f411xe.o(HEAP) for Heap_Mem
    startup_stm32f411xe.o(.text) refers to startup_stm32f411xe.o(STACK) for Stack_Mem
    system_stm32f4xx.o(.ARM.exidx.text.SystemInit) refers to system_stm32f4xx.o(.text.SystemInit) for [Anonymous Symbol]
    system_stm32f4xx.o(.text.SystemCoreClockUpdate) refers to system_stm32f4xx.o(.data.SystemCoreClock) for SystemCoreClock
    system_stm32f4xx.o(.text.SystemCoreClockUpdate) refers to system_stm32f4xx.o(.rodata.AHBPrescTable) for AHBPrescTable
    system_stm32f4xx.o(.ARM.exidx.text.SystemCoreClockUpdate) refers to system_stm32f4xx.o(.text.SystemCoreClockUpdate) for [Anonymous Symbol]
    malloc.o(.text) refers (Special) to hguard.o(.text) for __heap$guard
    malloc.o(.text) refers (Special) to init_alloc.o(.text) for _init_alloc
    malloc.o(.text) refers to rt_heap_descriptor_intlibspace.o(.text) for __rt_heap_descriptor
    malloc.o(.text) refers to heapstubs.o(.text) for __Heap_Alloc
    h1_alloc.o(.text) refers (Special) to h1_init.o(.text) for __Heap_Initialize
    h1_alloc.o(.text) refers to rt_heap_descriptor_intlibspace.o(.text) for __rt_heap_descriptor
    h1_alloc.o(.text) refers to init_alloc.o(.text) for __Heap_Full
    h1_alloc_threads.o(.text) refers (Special) to h1_init.o(.text) for __Heap_Initialize
    h1_alloc_threads.o(.text) refers to init_alloc.o(.text) for __Heap_Full
    h1_alloc_threads.o(.text) refers to rt_heap_descriptor_intlibspace.o(.text) for __rt_heap_descriptor
    heap2.o(i._FDIterate) refers to heap2.o(.conststring) for .conststring
    heap2.o(i.__Heap_ProvideMemory$realtime) refers to fdtree.o(i._FDTree_Delete) for _FDTree_Delete
    heap2.o(i.__Heap_ProvideMemory$realtime) refers to fdtree.o(i._FDTree_Insert) for _FDTree_Insert
    heap2.o(i.__Heap_Stats$realtime) refers to heap2.o(i._Heap2_StatsIterate) for _Heap2_StatsIterate
    heap2.o(i.__Heap_Valid$realtime) refers to heap2.o(i._FDIterate) for _FDIterate
    heap2.o(i.__Heap_Valid$realtime) refers to heap2.o(.conststring) for .conststring
    heap2.o(i.free$realtime) refers to rt_heap_descriptor_intlibspace.o(.text) for __rt_heap_descriptor
    heap2.o(i.free$realtime) refers to fdtree.o(i._FDTree_Delete) for _FDTree_Delete
    heap2.o(i.free$realtime) refers to fdtree.o(i._FDTree_Insert) for _FDTree_Insert
    heap2.o(i.malloc$realtime) refers to rt_heap_descriptor_intlibspace.o(.text) for __rt_heap_descriptor
    heap2.o(i.malloc$realtime) refers to fdtree.o(i._FDTree_FindFirst) for _FDTree_FindFirst
    heap2.o(i.malloc$realtime) refers to init_alloc.o(.text) for __Heap_Full
    heap2.o(i.malloc$realtime) refers to fdtree.o(i._FDTree_RemoveNode) for _FDTree_RemoveNode
    heap2.o(i.malloc$realtime) refers to fdtree.o(i._FDTree_Insert) for _FDTree_Insert
    heap2.o(i.posix_memalign$realtime) refers to rt_heap_descriptor_intlibspace.o(.text) for __rt_heap_descriptor
    heap2.o(i.posix_memalign$realtime) refers to fdtree.o(i._FDTree_FindFirst) for _FDTree_FindFirst
    heap2.o(i.posix_memalign$realtime) refers to init_alloc.o(.text) for __Heap_Full
    heap2.o(i.posix_memalign$realtime) refers to fdtree.o(i._FDTree_RemoveNode) for _FDTree_RemoveNode
    heap2.o(i.posix_memalign$realtime) refers to fdtree.o(i._FDTree_Insert) for _FDTree_Insert
    heap2.o(i.realloc$realtime) refers to rt_heap_descriptor_intlibspace.o(.text) for __rt_heap_descriptor
    heap2.o(i.realloc$realtime) refers to fdtree.o(i._FDTree_Insert) for _FDTree_Insert
    heap2.o(i.realloc$realtime) refers to h1_free.o(.text) for free
    heap2.o(i.realloc$realtime) refers to h1_alloc.o(.text) for malloc
    heap2.o(i.realloc$realtime) refers to fdtree.o(i._FDTree_Delete) for _FDTree_Delete
    heap2.o(i.realloc$realtime) refers to rt_memcpy_w.o(.text) for __aeabi_memcpy4
    heap2_threads.o(i._FDIterate) refers to heap2_threads.o(.conststring) for .conststring
    heap2_threads.o(i.__Heap_Initialize$realtime$concurrent) refers to mutex_dummy.o(.text) for _mutex_initialize
    heap2_threads.o(i.__Heap_ProvideMemory$realtime$concurrent) refers to fdtree.o(i._FDTree_Delete) for _FDTree_Delete
    heap2_threads.o(i.__Heap_ProvideMemory$realtime$concurrent) refers to fdtree.o(i._FDTree_Insert) for _FDTree_Insert
    heap2_threads.o(i.__Heap_Stats$realtime$concurrent) refers to heap2_threads.o(i._Heap2_StatsIterate) for _Heap2_StatsIterate
    heap2_threads.o(i.__Heap_Valid$realtime$concurrent) refers to heap2_threads.o(i._FDIterate) for _FDIterate
    heap2_threads.o(i.__Heap_Valid$realtime$concurrent) refers to heap2_threads.o(.conststring) for .conststring
    heap2_threads.o(i.free$realtime$concurrent) refers to rt_heap_descriptor_intlibspace.o(.text) for __rt_heap_descriptor
    heap2_threads.o(i.free$realtime$concurrent) refers to fdtree.o(i._FDTree_Delete) for _FDTree_Delete
    heap2_threads.o(i.free$realtime$concurrent) refers to fdtree.o(i._FDTree_Insert) for _FDTree_Insert
    heap2_threads.o(i.malloc$realtime$concurrent) refers to rt_heap_descriptor_intlibspace.o(.text) for __rt_heap_descriptor
    heap2_threads.o(i.malloc$realtime$concurrent) refers to fdtree.o(i._FDTree_FindFirst) for _FDTree_FindFirst
    heap2_threads.o(i.malloc$realtime$concurrent) refers to init_alloc.o(.text) for __Heap_Full
    heap2_threads.o(i.malloc$realtime$concurrent) refers to fdtree.o(i._FDTree_RemoveNode) for _FDTree_RemoveNode
    heap2_threads.o(i.malloc$realtime$concurrent) refers to fdtree.o(i._FDTree_Insert) for _FDTree_Insert
    heap2_threads.o(i.posix_memalign$realtime$concurrent) refers to rt_heap_descriptor_intlibspace.o(.text) for __rt_heap_descriptor
    heap2_threads.o(i.posix_memalign$realtime$concurrent) refers to fdtree.o(i._FDTree_FindFirst) for _FDTree_FindFirst
    heap2_threads.o(i.posix_memalign$realtime$concurrent) refers to init_alloc.o(.text) for __Heap_Full
    heap2_threads.o(i.posix_memalign$realtime$concurrent) refers to fdtree.o(i._FDTree_RemoveNode) for _FDTree_RemoveNode
    heap2_threads.o(i.posix_memalign$realtime$concurrent) refers to fdtree.o(i._FDTree_Insert) for _FDTree_Insert
    heap2_threads.o(i.realloc$realtime$concurrent) refers to rt_heap_descriptor_intlibspace.o(.text) for __rt_heap_descriptor
    heap2_threads.o(i.realloc$realtime$concurrent) refers to fdtree.o(i._FDTree_Insert) for _FDTree_Insert
    heap2_threads.o(i.realloc$realtime$concurrent) refers to h1_free.o(.text) for free
    heap2_threads.o(i.realloc$realtime$concurrent) refers to h1_alloc.o(.text) for malloc
    heap2_threads.o(i.realloc$realtime$concurrent) refers to fdtree.o(i._FDTree_Delete) for _FDTree_Delete
    heap2_threads.o(i.realloc$realtime$concurrent) refers to rt_memcpy_w.o(.text) for __aeabi_memcpy4
    exit.o(.text) refers to rtexit.o(.ARM.Collect$$rtexit$$00000000) for __rt_exit
    rt_memcpy_v6.o(.text) refers to rt_memcpy_w.o(.text) for __aeabi_memcpy4
    __main.o(!!!main) refers to __rtentry.o(.ARM.Collect$$rtentry$$00000000) for __rt_entry
    __rtentry.o(.ARM.Collect$$rtentry$$00000000) refers (Special) to __rtentry2.o(.ARM.Collect$$rtentry$$0000000A) for __rt_entry_li
    __rtentry.o(.ARM.Collect$$rtentry$$00000000) refers (Special) to __rtentry2.o(.ARM.Collect$$rtentry$$0000000D) for __rt_entry_main
    __rtentry.o(.ARM.Collect$$rtentry$$00000000) refers (Special) to __rtentry2.o(.ARM.Collect$$rtentry$$0000000C) for __rt_entry_postli_1
    __rtentry.o(.ARM.Collect$$rtentry$$00000000) refers (Special) to __rtentry2.o(.ARM.Collect$$rtentry$$00000009) for __rt_entry_postsh_1
    __rtentry.o(.ARM.Collect$$rtentry$$00000000) refers (Special) to __rtentry2.o(.ARM.Collect$$rtentry$$00000002) for __rt_entry_presh_1
    __rtentry.o(.ARM.Collect$$rtentry$$00000000) refers (Special) to __rtentry4.o(.ARM.Collect$$rtentry$$00000004) for __rt_entry_sh
    rtexit.o(.ARM.Collect$$rtexit$$00000000) refers (Special) to rtexit2.o(.ARM.Collect$$rtexit$$00000004) for __rt_exit_exit
    rtexit.o(.ARM.Collect$$rtexit$$00000000) refers (Special) to rtexit2.o(.ARM.Collect$$rtexit$$00000003) for __rt_exit_ls
    rtexit.o(.ARM.Collect$$rtexit$$00000000) refers (Special) to rtexit2.o(.ARM.Collect$$rtexit$$00000002) for __rt_exit_prels_1
    rtexit.o(.ARM.exidx) refers (Special) to rtexit2.o(.ARM.Collect$$rtexit$$00000004) for __rt_exit_exit
    rtexit.o(.ARM.exidx) refers (Special) to rtexit2.o(.ARM.Collect$$rtexit$$00000003) for __rt_exit_ls
    rtexit.o(.ARM.exidx) refers (Special) to rtexit2.o(.ARM.Collect$$rtexit$$00000002) for __rt_exit_prels_1
    rtexit.o(.ARM.exidx) refers to rtexit.o(.ARM.Collect$$rtexit$$00000000) for .ARM.Collect$$rtexit$$00000000
    rt_heap_descriptor.o(.text) refers to rt_heap_descriptor.o(.bss) for __rt_heap_descriptor_data
    rt_heap_descriptor_intlibspace.o(.text) refers to libspace.o(.bss) for __libspace_start
    init_alloc.o(.text) refers (Special) to hguard.o(.text) for __heap$guard
    init_alloc.o(.text) refers (Special) to libinit2.o(.ARM.Collect$$libinit$$00000007) for __rt_lib_init_heap_2
    init_alloc.o(.text) refers (Special) to maybetermalloc1.o(.text) for _maybe_terminate_alloc
    init_alloc.o(.text) refers to h1_extend.o(.text) for __Heap_ProvideMemory
    init_alloc.o(.text) refers to defsig_rtmem_outer.o(.text) for __rt_SIGRTMEM
    init_alloc.o(.text) refers to rt_heap_descriptor_intlibspace.o(.text) for __rt_heap_descriptor
    init_alloc.o(.text) refers to h1_init.o(.text) for __Heap_Initialize
    free.o(.text) refers (Special) to hguard.o(.text) for __heap$guard
    free.o(.text) refers to rt_heap_descriptor_intlibspace.o(.text) for __rt_heap_descriptor
    free.o(.text) refers to heapstubs.o(.text) for __Heap_Free
    h1_free.o(.text) refers to rt_heap_descriptor_intlibspace.o(.text) for __rt_heap_descriptor
    h1_init_threads.o(.text) refers to mutex_dummy.o(.text) for _mutex_initialize
    h1_free_threads.o(.text) refers to rt_heap_descriptor_intlibspace.o(.text) for __rt_heap_descriptor
    _get_argv.o(.text) refers (Special) to hrguard.o(.text) for __heap_region$guard
    _get_argv.o(.text) refers to h1_alloc.o(.text) for malloc
    _get_argv.o(.text) refers to defsig_rtmem_outer.o(.text) for __rt_SIGRTMEM
    _get_argv.o(.text) refers to sys_command.o(.text) for _sys_command_string
    libinit2.o(.ARM.Collect$$libinit$$00000007) refers (Weak) to init_alloc.o(.text) for _init_alloc
    libinit2.o(.ARM.Collect$$libinit$$00000012) refers to libinit2.o(.ARM.Collect$$libinit$$00000011) for .ARM.Collect$$libinit$$00000011
    libinit2.o(.ARM.Collect$$libinit$$00000014) refers to libinit2.o(.ARM.Collect$$libinit$$00000011) for .ARM.Collect$$libinit$$00000011
    libinit2.o(.ARM.Collect$$libinit$$00000016) refers to libinit2.o(.ARM.Collect$$libinit$$00000011) for .ARM.Collect$$libinit$$00000011
    libinit2.o(.ARM.Collect$$libinit$$00000018) refers to libinit2.o(.ARM.Collect$$libinit$$00000011) for .ARM.Collect$$libinit$$00000011
    libinit2.o(.ARM.Collect$$libinit$$0000001A) refers to libinit2.o(.ARM.Collect$$libinit$$00000011) for .ARM.Collect$$libinit$$00000011
    libinit2.o(.ARM.Collect$$libinit$$00000028) refers to argv_veneer.o(.emb_text) for __ARM_argv_veneer
    libinit2.o(.ARM.Collect$$libinit$$00000029) refers to argv_veneer.o(.emb_text) for __ARM_argv_veneer
    sys_command.o(.text) refers (Special) to use_no_semi.o(.text) for __I$use$semihosting
    sys_command.o(.text) refers (Special) to indicate_semi.o(.text) for __semihosting_library_function
    sys_command_hlt.o(.text) refers (Special) to use_no_semi.o(.text) for __I$use$semihosting
    sys_command_hlt.o(.text) refers (Special) to indicate_semi.o(.text) for __semihosting_library_function
    libspace.o(.text) refers to libspace.o(.bss) for __libspace_start
    __rtentry2.o(.ARM.Collect$$rtentry$$00000008) refers to boardinit2.o(.text) for _platform_post_stackheap_init
    __rtentry2.o(.ARM.Collect$$rtentry$$0000000A) refers to libinit.o(.ARM.Collect$$libinit$$00000000) for __rt_lib_init
    __rtentry2.o(.ARM.Collect$$rtentry$$0000000B) refers to boardinit3.o(.text) for _platform_post_lib_init
    __rtentry2.o(.ARM.Collect$$rtentry$$0000000D) refers to main.o(.text.main) for main
    __rtentry2.o(.ARM.Collect$$rtentry$$0000000D) refers to exit.o(.text) for exit
    __rtentry2.o(.ARM.exidx) refers to __rtentry2.o(.ARM.Collect$$rtentry$$00000001) for .ARM.Collect$$rtentry$$00000001
    __rtentry2.o(.ARM.exidx) refers to __rtentry2.o(.ARM.Collect$$rtentry$$00000008) for .ARM.Collect$$rtentry$$00000008
    __rtentry2.o(.ARM.exidx) refers to __rtentry2.o(.ARM.Collect$$rtentry$$0000000A) for .ARM.Collect$$rtentry$$0000000A
    __rtentry2.o(.ARM.exidx) refers to __rtentry2.o(.ARM.Collect$$rtentry$$0000000B) for .ARM.Collect$$rtentry$$0000000B
    __rtentry2.o(.ARM.exidx) refers to __rtentry2.o(.ARM.Collect$$rtentry$$0000000D) for .ARM.Collect$$rtentry$$0000000D
    __rtentry4.o(.ARM.Collect$$rtentry$$00000004) refers to sys_stackheap_outer.o(.text) for __user_setup_stackheap
    __rtentry4.o(.ARM.exidx) refers to __rtentry4.o(.ARM.Collect$$rtentry$$00000004) for .ARM.Collect$$rtentry$$00000004
    rtexit2.o(.ARM.Collect$$rtexit$$00000003) refers to libshutdown.o(.ARM.Collect$$libshutdown$$00000000) for __rt_lib_shutdown
    rtexit2.o(.ARM.Collect$$rtexit$$00000004) refers to sys_exit.o(.text) for _sys_exit
    rtexit2.o(.ARM.exidx) refers to rtexit2.o(.ARM.Collect$$rtexit$$00000001) for .ARM.Collect$$rtexit$$00000001
    rtexit2.o(.ARM.exidx) refers to rtexit2.o(.ARM.Collect$$rtexit$$00000003) for .ARM.Collect$$rtexit$$00000003
    rtexit2.o(.ARM.exidx) refers to rtexit2.o(.ARM.Collect$$rtexit$$00000004) for .ARM.Collect$$rtexit$$00000004
    maybetermalloc2.o(.text) refers (Special) to term_alloc.o(.text) for _terminate_alloc
    h1_extend.o(.text) refers to h1_free.o(.text) for free
    h1_extend_threads.o(.text) refers to h1_free_threads.o(.text) for free_internal$concurrent
    defsig_rtmem_outer.o(.text) refers to defsig_rtmem_inner.o(.text) for __rt_SIGRTMEM_inner
    defsig_rtmem_outer.o(.text) refers to defsig_exit.o(.text) for __sig_exit
    defsig_rtmem_formal.o(.text) refers to rt_raise.o(.text) for __rt_raise
    heapauxa.o(.text) refers to heapauxa.o(.data) for .data
    argv_veneer.o(.emb_text) refers to no_argv.o(.text) for __ARM_get_argv
    sys_exit.o(.text) refers (Special) to use_no_semi.o(.text) for __I$use$semihosting
    sys_exit.o(.text) refers (Special) to indicate_semi.o(.text) for __semihosting_library_function
    sys_exit_hlt.o(.text) refers (Special) to use_no_semi.o(.text) for __I$use$semihosting
    sys_exit_hlt.o(.text) refers (Special) to indicate_semi.o(.text) for __semihosting_library_function
    sys_stackheap_outer.o(.text) refers to libspace.o(.text) for __user_perproc_libspace
    sys_stackheap_outer.o(.text) refers to startup_stm32f411xe.o(.text) for __user_initial_stackheap
    rt_raise.o(.text) refers to __raise.o(.text) for __raise
    rt_raise.o(.text) refers to sys_exit.o(.text) for _sys_exit
    term_alloc.o(.text) refers (Special) to libshutdown2.o(.ARM.Collect$$libshutdown$$0000000E) for __rt_lib_shutdown_heap_2
    term_alloc.o(.text) refers to rt_heap_descriptor_intlibspace.o(.text) for __rt_heap_descriptor
    term_alloc.o(.text) refers to h1_final.o(.text) for __Heap_Finalize
    defsig_exit.o(.text) refers to sys_exit.o(.text) for _sys_exit
    defsig_rtmem_inner.o(.text) refers to defsig_general.o(.text) for __default_signal_display
    _get_argv_nomalloc.o(.text) refers (Special) to hrguard.o(.text) for __heap_region$guard
    _get_argv_nomalloc.o(.text) refers to defsig_rtmem_outer.o(.text) for __rt_SIGRTMEM
    _get_argv_nomalloc.o(.text) refers to sys_command.o(.text) for _sys_command_string
    libinit.o(.ARM.Collect$$libinit$$00000000) refers (Special) to libinit2.o(.ARM.Collect$$libinit$$00000030) for __rt_lib_init_alloca_1
    libinit.o(.ARM.Collect$$libinit$$00000000) refers (Special) to libinit2.o(.ARM.Collect$$libinit$$0000002E) for __rt_lib_init_argv_1
    libinit.o(.ARM.Collect$$libinit$$00000000) refers (Special) to libinit2.o(.ARM.Collect$$libinit$$0000001D) for __rt_lib_init_atexit_1
    libinit.o(.ARM.Collect$$libinit$$00000000) refers (Special) to libinit2.o(.ARM.Collect$$libinit$$00000023) for __rt_lib_init_clock_1
    libinit.o(.ARM.Collect$$libinit$$00000000) refers (Special) to libinit2.o(.ARM.Collect$$libinit$$00000034) for __rt_lib_init_cpp_1
    libinit.o(.ARM.Collect$$libinit$$00000000) refers (Special) to libinit2.o(.ARM.Collect$$libinit$$00000032) for __rt_lib_init_exceptions_1
    libinit.o(.ARM.Collect$$libinit$$00000000) refers (Special) to libinit2.o(.ARM.Collect$$libinit$$00000002) for __rt_lib_init_fp_1
    libinit.o(.ARM.Collect$$libinit$$00000000) refers (Special) to libinit2.o(.ARM.Collect$$libinit$$00000021) for __rt_lib_init_fp_trap_1
    libinit.o(.ARM.Collect$$libinit$$00000000) refers (Special) to libinit2.o(.ARM.Collect$$libinit$$00000025) for __rt_lib_init_getenv_1
    libinit.o(.ARM.Collect$$libinit$$00000000) refers (Special) to libinit2.o(.ARM.Collect$$libinit$$0000000C) for __rt_lib_init_heap_1
    libinit.o(.ARM.Collect$$libinit$$00000000) refers (Special) to libinit2.o(.ARM.Collect$$libinit$$00000013) for __rt_lib_init_lc_collate_1
    libinit.o(.ARM.Collect$$libinit$$00000000) refers (Special) to libinit2.o(.ARM.Collect$$libinit$$00000015) for __rt_lib_init_lc_ctype_1
    libinit.o(.ARM.Collect$$libinit$$00000000) refers (Special) to libinit2.o(.ARM.Collect$$libinit$$00000017) for __rt_lib_init_lc_monetary_1
    libinit.o(.ARM.Collect$$libinit$$00000000) refers (Special) to libinit2.o(.ARM.Collect$$libinit$$00000019) for __rt_lib_init_lc_numeric_1
    libinit.o(.ARM.Collect$$libinit$$00000000) refers (Special) to libinit2.o(.ARM.Collect$$libinit$$0000001B) for __rt_lib_init_lc_time_1
    libinit.o(.ARM.Collect$$libinit$$00000000) refers (Special) to libinit2.o(.ARM.Collect$$libinit$$00000006) for __rt_lib_init_preinit_1
    libinit.o(.ARM.Collect$$libinit$$00000000) refers (Special) to libinit2.o(.ARM.Collect$$libinit$$00000010) for __rt_lib_init_rand_1
    libinit.o(.ARM.Collect$$libinit$$00000000) refers (Special) to libinit2.o(.ARM.Collect$$libinit$$00000004) for __rt_lib_init_relocate_pie_1
    libinit.o(.ARM.Collect$$libinit$$00000000) refers (Special) to libinit2.o(.ARM.Collect$$libinit$$00000035) for __rt_lib_init_return
    libinit.o(.ARM.Collect$$libinit$$00000000) refers (Special) to libinit2.o(.ARM.Collect$$libinit$$0000001F) for __rt_lib_init_signal_1
    libinit.o(.ARM.Collect$$libinit$$00000000) refers (Special) to libinit2.o(.ARM.Collect$$libinit$$00000027) for __rt_lib_init_stdio_1
    libinit.o(.ARM.Collect$$libinit$$00000000) refers (Special) to libinit2.o(.ARM.Collect$$libinit$$0000000E) for __rt_lib_init_user_alloc_1
    libshutdown.o(.ARM.Collect$$libshutdown$$00000000) refers (Special) to libshutdown2.o(.ARM.Collect$$libshutdown$$00000002) for __rt_lib_shutdown_cpp_1
    libshutdown.o(.ARM.Collect$$libshutdown$$00000000) refers (Special) to libshutdown2.o(.ARM.Collect$$libshutdown$$00000007) for __rt_lib_shutdown_fp_trap_1
    libshutdown.o(.ARM.Collect$$libshutdown$$00000000) refers (Special) to libshutdown2.o(.ARM.Collect$$libshutdown$$0000000F) for __rt_lib_shutdown_heap_1
    libshutdown.o(.ARM.Collect$$libshutdown$$00000000) refers (Special) to libshutdown2.o(.ARM.Collect$$libshutdown$$00000010) for __rt_lib_shutdown_return
    libshutdown.o(.ARM.Collect$$libshutdown$$00000000) refers (Special) to libshutdown2.o(.ARM.Collect$$libshutdown$$0000000A) for __rt_lib_shutdown_signal_1
    libshutdown.o(.ARM.Collect$$libshutdown$$00000000) refers (Special) to libshutdown2.o(.ARM.Collect$$libshutdown$$00000004) for __rt_lib_shutdown_stdio_1
    libshutdown.o(.ARM.Collect$$libshutdown$$00000000) refers (Special) to libshutdown2.o(.ARM.Collect$$libshutdown$$0000000C) for __rt_lib_shutdown_user_alloc_1
    __raise.o(.text) refers to defsig.o(CL$$defsig) for __default_signal_handler
    defsig_general.o(.text) refers to sys_wrch.o(.text) for _ttywrch
    libshutdown2.o(.ARM.Collect$$libshutdown$$0000000D) refers (Weak) to term_alloc.o(.text) for _terminate_alloc
    sys_wrch.o(.text) refers (Special) to use_no_semi.o(.text) for __I$use$semihosting
    sys_wrch.o(.text) refers (Special) to indicate_semi.o(.text) for __semihosting_library_function
    sys_wrch_hlt.o(.text) refers (Special) to use_no_semi.o(.text) for __I$use$semihosting
    sys_wrch_hlt.o(.text) refers (Special) to indicate_semi.o(.text) for __semihosting_library_function
    defsig.o(CL$$defsig) refers to defsig_rtmem_inner.o(.text) for __rt_SIGRTMEM_inner
    defsig_abrt_inner.o(.text) refers to defsig_general.o(.text) for __default_signal_display
    defsig_fpe_inner.o(.text) refers to defsig_general.o(.text) for __default_signal_display
    defsig_rtred_inner.o(.text) refers to defsig_general.o(.text) for __default_signal_display
    defsig_stak_inner.o(.text) refers to defsig_general.o(.text) for __default_signal_display
    defsig_pvfn_inner.o(.text) refers to defsig_general.o(.text) for __default_signal_display
    defsig_cppl_inner.o(.text) refers to defsig_general.o(.text) for __default_signal_display
    defsig_segv_inner.o(.text) refers to defsig_general.o(.text) for __default_signal_display
    defsig_other.o(.text) refers to defsig_general.o(.text) for __default_signal_display


==============================================================================

Removing Unused input sections from the image.

    Removing main.o(.text), (0 bytes).
    Removing main.o(.ARM.exidx.text.main), (8 bytes).
    Removing main.o(.ARM.exidx.text.DebounceSwitch), (8 bytes).
    Removing main.o(.ARM.exidx.text.DebounceSwitch2), (8 bytes).
    Removing main.o(.ARM.exidx.text.DebounceSwitch3), (8 bytes).
    Removing main.o(.ARM.exidx.text.App_TimeTickHook), (8 bytes).
    Removing main.o(.ARM.use_no_argv), (4 bytes).
    Removing stm32f4xx_it.o(.text), (0 bytes).
    Removing stm32f4xx_it.o(.ARM.exidx.text.NMI_Handler), (8 bytes).
    Removing stm32f4xx_it.o(.ARM.exidx.text.HardFault_Handler), (8 bytes).
    Removing stm32f4xx_it.o(.ARM.exidx.text.MemManage_Handler), (8 bytes).
    Removing stm32f4xx_it.o(.ARM.exidx.text.BusFault_Handler), (8 bytes).
    Removing stm32f4xx_it.o(.ARM.exidx.text.UsageFault_Handler), (8 bytes).
    Removing stm32f4xx_it.o(.ARM.exidx.text.SVC_Handler), (8 bytes).
    Removing stm32f4xx_it.o(.ARM.exidx.text.DebugMon_Handler), (8 bytes).
    Removing stm32f4xx_it.o(.text.PendSV_Handler), (2 bytes).
    Removing stm32f4xx_it.o(.ARM.exidx.text.PendSV_Handler), (8 bytes).
    Removing stm32f4xx_it.o(.text.SysTick_Handler), (2 bytes).
    Removing stm32f4xx_it.o(.ARM.exidx.text.SysTick_Handler), (8 bytes).
    Removing stm32f4xx_it.o(.ARM.exidx.text.EXTI15_10_IRQHandler), (8 bytes).
    Removing stm32f4xx_it.o(.ARM.exidx.text.OTG_FS_IRQHandler), (8 bytes).
    Removing stm32f4xx_it.o(.ARM.exidx.text.EXTI0_IRQHandler), (8 bytes).
    Removing app.o(.text), (0 bytes).
    Removing app.o(.ARM.exidx.text.QF_onStartup), (8 bytes).
    Removing app.o(.text.QF_onCleanup), (2 bytes).
    Removing app.o(.ARM.exidx.text.QF_onCleanup), (8 bytes).
    Removing app.o(.text.QF_onClockTick), (12 bytes).
    Removing app.o(.ARM.exidx.text.QF_onClockTick), (8 bytes).
    Removing app.o(.ARM.exidx.text.Q_onError), (8 bytes).
    Removing central.o(.text), (0 bytes).
    Removing central.o(.ARM.exidx.text.Central_ctor), (8 bytes).
    Removing central.o(.ARM.exidx.text.Central_initial), (8 bytes).
    Removing central.o(.ARM.exidx.text.Central_started), (8 bytes).
    Removing central.o(.ARM.exidx.text.Central_percentdata), (8 bytes).
    Removing central.o(.ARM.exidx.text.calculateHue), (8 bytes).
    Removing central.o(.ARM.exidx.text.Central_rawdata), (8 bytes).
    Removing tickerkeeper.o(.text), (0 bytes).
    Removing tickerkeeper.o(.ARM.exidx.text.TickerKeeper_initial), (8 bytes).
    Removing tickerkeeper.o(.ARM.exidx.text.TickerKeeper_running), (8 bytes).
    Removing tickerkeeper.o(.ARM.exidx.text.TickerKeeper_paused), (8 bytes).
    Removing tickerkeeper.o(.ARM.exidx.text.TickerKeeper_ctor), (8 bytes).
    Removing bsp_gpio.o(.text), (0 bytes).
    Removing bsp_gpio.o(.text.bsp_gpio_LED_init), (84 bytes).
    Removing bsp_gpio.o(.ARM.exidx.text.bsp_gpio_LED_init), (8 bytes).
    Removing bsp_gpio.o(.text.bsp_gpio_LED_on), (18 bytes).
    Removing bsp_gpio.o(.ARM.exidx.text.bsp_gpio_LED_on), (8 bytes).
    Removing bsp_gpio.o(.text.bsp_gpio_LED_off), (18 bytes).
    Removing bsp_gpio.o(.ARM.exidx.text.bsp_gpio_LED_off), (8 bytes).
    Removing bsp_gpio.o(.ARM.exidx.text.bsp_gpio_user_key_init), (8 bytes).
    Removing bsp_gpio.o(.text.bsp_gpio_user_key_it_init), (84 bytes).
    Removing bsp_gpio.o(.ARM.exidx.text.bsp_gpio_user_key_it_init), (8 bytes).
    Removing bsp_gpio.o(.text.__NVIC_SetPriority), (66 bytes).
    Removing bsp_gpio.o(.ARM.exidx.text.__NVIC_SetPriority), (8 bytes).
    Removing bsp_gpio.o(.text.__NVIC_EnableIRQ), (48 bytes).
    Removing bsp_gpio.o(.ARM.exidx.text.__NVIC_EnableIRQ), (8 bytes).
    Removing bsp_gpio.o(.ARM.exidx.text.bsp_gpio_user_key_get_state), (8 bytes).
    Removing bsp_gpio.o(.text.bsp_gpio_PA7_init), (78 bytes).
    Removing bsp_gpio.o(.ARM.exidx.text.bsp_gpio_PA7_init), (8 bytes).
    Removing bsp_gpio.o(.ARM.exidx.text.bsp_gpio_PA7_set), (8 bytes).
    Removing bsp_gpio.o(.ARM.exidx.text.bsp_gpio_PA7_reset), (8 bytes).
    Removing bsp_gpio.o(.ARM.exidx.text.bsp_gpio_PB10_init), (8 bytes).
    Removing bsp_gpio.o(.ARM.exidx.text.bsp_gpio_PB10_set), (8 bytes).
    Removing bsp_gpio.o(.ARM.exidx.text.bsp_gpio_PB10_reset), (8 bytes).
    Removing bsp_gpio.o(.text.bsp_gpio_PA6_init), (48 bytes).
    Removing bsp_gpio.o(.ARM.exidx.text.bsp_gpio_PA6_init), (8 bytes).
    Removing bsp_gpio.o(.text.bsp_gpio_PA6_set), (16 bytes).
    Removing bsp_gpio.o(.ARM.exidx.text.bsp_gpio_PA6_set), (8 bytes).
    Removing bsp_gpio.o(.text.bsp_gpio_PA6_reset), (16 bytes).
    Removing bsp_gpio.o(.ARM.exidx.text.bsp_gpio_PA6_reset), (8 bytes).
    Removing bsp_gpio.o(.text.bsp_gpio_PA6_get_state), (14 bytes).
    Removing bsp_gpio.o(.ARM.exidx.text.bsp_gpio_PA6_get_state), (8 bytes).
    Removing bsp_gpio.o(.ARM.exidx.text.bsp_gpio_PB0_init), (8 bytes).
    Removing bsp_gpio.o(.text.bsp_gpio_PB0_set), (18 bytes).
    Removing bsp_gpio.o(.ARM.exidx.text.bsp_gpio_PB0_set), (8 bytes).
    Removing bsp_gpio.o(.text.bsp_gpio_PB0_reset), (18 bytes).
    Removing bsp_gpio.o(.ARM.exidx.text.bsp_gpio_PB0_reset), (8 bytes).
    Removing bsp_gpio.o(.ARM.exidx.text.bsp_gpio_PB0_get_state), (8 bytes).
    Removing bsp_gpio.o(.ARM.exidx.text.bsp_gpio_PB1_init), (8 bytes).
    Removing bsp_gpio.o(.text.bsp_gpio_PB1_set), (18 bytes).
    Removing bsp_gpio.o(.ARM.exidx.text.bsp_gpio_PB1_set), (8 bytes).
    Removing bsp_gpio.o(.text.bsp_gpio_PB1_reset), (18 bytes).
    Removing bsp_gpio.o(.ARM.exidx.text.bsp_gpio_PB1_reset), (8 bytes).
    Removing bsp_gpio.o(.ARM.exidx.text.bsp_gpio_PB1_get_state), (8 bytes).
    Removing bsp_i2c.o(.text), (0 bytes).
    Removing bsp_i2c.o(.ARM.exidx.text.bsp_i2c_init), (8 bytes).
    Removing bsp_i2c.o(.ARM.exidx.text.bsp_i2c_master_transfer), (8 bytes).
    Removing bsp_i2c.o(.ARM.exidx.text.bsp_i2c_master_receive), (8 bytes).
    Removing bsp_i2c.o(.ARM.exidx.text.bsp_i2c_master_receive_reg), (8 bytes).
    Removing bsp_system.o(.text), (0 bytes).
    Removing bsp_system.o(.ARM.exidx.text.bsp_system_init), (8 bytes).
    Removing bsp_system.o(.ARM.exidx.text.bsp_flash_init), (8 bytes).
    Removing bsp_system.o(.ARM.exidx.text.bsp_rcc_clock_init), (8 bytes).
    Removing bsp_system.o(.ARM.exidx.text.bsp_systick_init), (8 bytes).
    Removing bsp_spi.o(.text), (0 bytes).
    Removing bsp_spi.o(.text.bsp_spi_init), (682 bytes).
    Removing bsp_spi.o(.ARM.exidx.text.bsp_spi_init), (8 bytes).
    Removing bsp_spi.o(.text.__NVIC_EnableIRQ), (48 bytes).
    Removing bsp_spi.o(.ARM.exidx.text.__NVIC_EnableIRQ), (8 bytes).
    Removing bsp_spi.o(.text.bsp_spi_transmit_dma), (230 bytes).
    Removing bsp_spi.o(.ARM.exidx.text.bsp_spi_transmit_dma), (8 bytes).
    Removing bsp_spi.o(.text.bsp_spi_transmit_receive_dma), (372 bytes).
    Removing bsp_spi.o(.ARM.exidx.text.bsp_spi_transmit_receive_dma), (8 bytes).
    Removing bsp_spi.o(.ARM.exidx.text.DMA2_Stream3_IRQHandler), (8 bytes).
    Removing bsp_spi.o(.ARM.exidx.text.DMA2_Stream2_IRQHandler), (8 bytes).
    Removing bsp_spi.o(.text.bsp_spi_register_transfer_complete_callback), (22 bytes).
    Removing bsp_spi.o(.ARM.exidx.text.bsp_spi_register_transfer_complete_callback), (8 bytes).
    Removing bsp_spi.o(.text.bsp_spi_register_transfer_error_callback), (22 bytes).
    Removing bsp_spi.o(.ARM.exidx.text.bsp_spi_register_transfer_error_callback), (8 bytes).
    Removing os_core.o(.text), (0 bytes).
    Removing os_core.o(.text.OSEventNameGet), (176 bytes).
    Removing os_core.o(.ARM.exidx.text.OSEventNameGet), (8 bytes).
    Removing os_core.o(.text.OS_StrLen), (70 bytes).
    Removing os_core.o(.ARM.exidx.text.OS_StrLen), (8 bytes).
    Removing os_core.o(.text.OSEventNameSet), (126 bytes).
    Removing os_core.o(.ARM.exidx.text.OSEventNameSet), (8 bytes).
    Removing os_core.o(.text.OSEventPendMulti), (1104 bytes).
    Removing os_core.o(.ARM.exidx.text.OSEventPendMulti), (8 bytes).
    Removing os_core.o(.text.OS_EventTaskWaitMulti), (184 bytes).
    Removing os_core.o(.ARM.exidx.text.OS_EventTaskWaitMulti), (8 bytes).
    Removing os_core.o(.ARM.exidx.text.OS_Sched), (8 bytes).
    Removing os_core.o(.ARM.exidx.text.OS_EventTaskRemoveMulti), (8 bytes).
    Removing os_core.o(.ARM.exidx.text.OSInit), (8 bytes).
    Removing os_core.o(.ARM.exidx.text.OS_InitMisc), (8 bytes).
    Removing os_core.o(.ARM.exidx.text.OS_InitRdyList), (8 bytes).
    Removing os_core.o(.ARM.exidx.text.OS_InitTCBList), (8 bytes).
    Removing os_core.o(.ARM.exidx.text.OS_InitEventList), (8 bytes).
    Removing os_core.o(.ARM.exidx.text.OS_InitTaskIdle), (8 bytes).
    Removing os_core.o(.ARM.exidx.text.OS_InitTaskStat), (8 bytes).
    Removing os_core.o(.ARM.exidx.text.OSIntEnter), (8 bytes).
    Removing os_core.o(.ARM.exidx.text.OSIntExit), (8 bytes).
    Removing os_core.o(.ARM.exidx.text.OS_SchedNew), (8 bytes).
    Removing os_core.o(.text.OSSchedLock), (100 bytes).
    Removing os_core.o(.ARM.exidx.text.OSSchedLock), (8 bytes).
    Removing os_core.o(.text.OSSchedUnlock), (146 bytes).
    Removing os_core.o(.ARM.exidx.text.OSSchedUnlock), (8 bytes).
    Removing os_core.o(.ARM.exidx.text.OSStart), (8 bytes).
    Removing os_core.o(.text.OSStatInit), (112 bytes).
    Removing os_core.o(.ARM.exidx.text.OSStatInit), (8 bytes).
    Removing os_core.o(.ARM.exidx.text.OSTimeTick), (8 bytes).
    Removing os_core.o(.text.OSVersion), (6 bytes).
    Removing os_core.o(.ARM.exidx.text.OSVersion), (8 bytes).
    Removing os_core.o(.ARM.exidx.text.OS_Dummy), (8 bytes).
    Removing os_core.o(.ARM.exidx.text.OS_EventTaskRdy), (8 bytes).
    Removing os_core.o(.ARM.exidx.text.OS_EventTaskRemove), (8 bytes).
    Removing os_core.o(.ARM.exidx.text.OS_EventTaskWait), (8 bytes).
    Removing os_core.o(.ARM.exidx.text.OS_EventWaitListInit), (8 bytes).
    Removing os_core.o(.ARM.exidx.text.OS_MemClr), (8 bytes).
    Removing os_core.o(.text.OS_MemCopy), (52 bytes).
    Removing os_core.o(.ARM.exidx.text.OS_MemCopy), (8 bytes).
    Removing os_core.o(.ARM.exidx.text.OS_TaskIdle), (8 bytes).
    Removing os_core.o(.ARM.exidx.text.OS_TaskStat), (8 bytes).
    Removing os_core.o(.ARM.exidx.text.OS_TaskStatStkChk), (8 bytes).
    Removing os_core.o(.ARM.exidx.text.OS_TCBInit), (8 bytes).
    Removing os_flag.o(.text), (0 bytes).
    Removing os_flag.o(.text.OSFlagAccept), (480 bytes).
    Removing os_flag.o(.ARM.exidx.text.OSFlagAccept), (8 bytes).
    Removing os_flag.o(.text.OSFlagCreate), (164 bytes).
    Removing os_flag.o(.ARM.exidx.text.OSFlagCreate), (8 bytes).
    Removing os_flag.o(.text.OSFlagDel), (372 bytes).
    Removing os_flag.o(.ARM.exidx.text.OSFlagDel), (8 bytes).
    Removing os_flag.o(.text.OS_FlagTaskRdy), (142 bytes).
    Removing os_flag.o(.ARM.exidx.text.OS_FlagTaskRdy), (8 bytes).
    Removing os_flag.o(.text.OSFlagNameGet), (182 bytes).
    Removing os_flag.o(.ARM.exidx.text.OSFlagNameGet), (8 bytes).
    Removing os_flag.o(.text.OSFlagNameSet), (132 bytes).
    Removing os_flag.o(.ARM.exidx.text.OSFlagNameSet), (8 bytes).
    Removing os_flag.o(.text.OSFlagPend), (1040 bytes).
    Removing os_flag.o(.ARM.exidx.text.OSFlagPend), (8 bytes).
    Removing os_flag.o(.text.OS_FlagBlock), (212 bytes).
    Removing os_flag.o(.ARM.exidx.text.OS_FlagBlock), (8 bytes).
    Removing os_flag.o(.ARM.exidx.text.OS_FlagUnlink), (8 bytes).
    Removing os_flag.o(.text.OSFlagPendGetFlagsRdy), (54 bytes).
    Removing os_flag.o(.ARM.exidx.text.OSFlagPendGetFlagsRdy), (8 bytes).
    Removing os_flag.o(.text.OSFlagPost), (560 bytes).
    Removing os_flag.o(.ARM.exidx.text.OSFlagPost), (8 bytes).
    Removing os_flag.o(.text.OSFlagQuery), (110 bytes).
    Removing os_flag.o(.ARM.exidx.text.OSFlagQuery), (8 bytes).
    Removing os_flag.o(.ARM.exidx.text.OS_FlagInit), (8 bytes).
    Removing os_mbox.o(.text), (0 bytes).
    Removing os_mbox.o(.text.OSMboxAccept), (84 bytes).
    Removing os_mbox.o(.ARM.exidx.text.OSMboxAccept), (8 bytes).
    Removing os_mbox.o(.text.OSMboxCreate), (142 bytes).
    Removing os_mbox.o(.ARM.exidx.text.OSMboxCreate), (8 bytes).
    Removing os_mbox.o(.text.OSMboxDel), (364 bytes).
    Removing os_mbox.o(.ARM.exidx.text.OSMboxDel), (8 bytes).
    Removing os_mbox.o(.text.OSMboxPend), (388 bytes).
    Removing os_mbox.o(.ARM.exidx.text.OSMboxPend), (8 bytes).
    Removing os_mbox.o(.text.OSMboxPendAbort), (228 bytes).
    Removing os_mbox.o(.ARM.exidx.text.OSMboxPendAbort), (8 bytes).
    Removing os_mbox.o(.text.OSMboxPost), (170 bytes).
    Removing os_mbox.o(.ARM.exidx.text.OSMboxPost), (8 bytes).
    Removing os_mbox.o(.text.OSMboxPostOpt), (226 bytes).
    Removing os_mbox.o(.ARM.exidx.text.OSMboxPostOpt), (8 bytes).
    Removing os_mbox.o(.text.OSMboxQuery), (172 bytes).
    Removing os_mbox.o(.ARM.exidx.text.OSMboxQuery), (8 bytes).
    Removing os_mbox.o(.rodata.str1.1), (2 bytes).
    Removing os_mem.o(.text), (0 bytes).
    Removing os_mem.o(.text.OSMemCreate), (280 bytes).
    Removing os_mem.o(.ARM.exidx.text.OSMemCreate), (8 bytes).
    Removing os_mem.o(.text.OSMemGet), (122 bytes).
    Removing os_mem.o(.ARM.exidx.text.OSMemGet), (8 bytes).
    Removing os_mem.o(.text.OSMemNameGet), (148 bytes).
    Removing os_mem.o(.ARM.exidx.text.OSMemNameGet), (8 bytes).
    Removing os_mem.o(.text.OSMemNameSet), (104 bytes).
    Removing os_mem.o(.ARM.exidx.text.OSMemNameSet), (8 bytes).
    Removing os_mem.o(.text.OSMemPut), (130 bytes).
    Removing os_mem.o(.ARM.exidx.text.OSMemPut), (8 bytes).
    Removing os_mem.o(.text.OSMemQuery), (128 bytes).
    Removing os_mem.o(.ARM.exidx.text.OSMemQuery), (8 bytes).
    Removing os_mem.o(.ARM.exidx.text.OS_MemInit), (8 bytes).
    Removing os_mutex.o(.text), (0 bytes).
    Removing os_mutex.o(.text.OSMutexAccept), (258 bytes).
    Removing os_mutex.o(.ARM.exidx.text.OSMutexAccept), (8 bytes).
    Removing os_mutex.o(.text.OSMutexCreate), (314 bytes).
    Removing os_mutex.o(.ARM.exidx.text.OSMutexCreate), (8 bytes).
    Removing os_mutex.o(.text.OSMutexDel), (510 bytes).
    Removing os_mutex.o(.ARM.exidx.text.OSMutexDel), (8 bytes).
    Removing os_mutex.o(.text.OSMutex_RdyAtPrio), (220 bytes).
    Removing os_mutex.o(.ARM.exidx.text.OSMutex_RdyAtPrio), (8 bytes).
    Removing os_mutex.o(.text.OSMutexPend), (870 bytes).
    Removing os_mutex.o(.ARM.exidx.text.OSMutexPend), (8 bytes).
    Removing os_mutex.o(.text.OSMutexPost), (380 bytes).
    Removing os_mutex.o(.ARM.exidx.text.OSMutexPost), (8 bytes).
    Removing os_mutex.o(.text.OSMutexQuery), (226 bytes).
    Removing os_mutex.o(.ARM.exidx.text.OSMutexQuery), (8 bytes).
    Removing os_mutex.o(.rodata.str1.1), (2 bytes).
    Removing os_q.o(.text), (0 bytes).
    Removing os_q.o(.text.OSQAccept), (160 bytes).
    Removing os_q.o(.ARM.exidx.text.OSQAccept), (8 bytes).
    Removing os_q.o(.ARM.exidx.text.OSQCreate), (8 bytes).
    Removing os_q.o(.text.OSQDel), (412 bytes).
    Removing os_q.o(.ARM.exidx.text.OSQDel), (8 bytes).
    Removing os_q.o(.text.OSQFlush), (104 bytes).
    Removing os_q.o(.ARM.exidx.text.OSQFlush), (8 bytes).
    Removing os_q.o(.ARM.exidx.text.OSQPend), (8 bytes).
    Removing os_q.o(.text.OSQPendAbort), (228 bytes).
    Removing os_q.o(.ARM.exidx.text.OSQPendAbort), (8 bytes).
    Removing os_q.o(.ARM.exidx.text.OSQPost), (8 bytes).
    Removing os_q.o(.text.OSQPostFront), (204 bytes).
    Removing os_q.o(.ARM.exidx.text.OSQPostFront), (8 bytes).
    Removing os_q.o(.text.OSQPostOpt), (308 bytes).
    Removing os_q.o(.ARM.exidx.text.OSQPostOpt), (8 bytes).
    Removing os_q.o(.text.OSQQuery), (214 bytes).
    Removing os_q.o(.ARM.exidx.text.OSQQuery), (8 bytes).
    Removing os_q.o(.ARM.exidx.text.OS_QInit), (8 bytes).
    Removing os_sem.o(.text), (0 bytes).
    Removing os_sem.o(.text.OSSemAccept), (108 bytes).
    Removing os_sem.o(.ARM.exidx.text.OSSemAccept), (8 bytes).
    Removing os_sem.o(.text.OSSemCreate), (146 bytes).
    Removing os_sem.o(.ARM.exidx.text.OSSemCreate), (8 bytes).
    Removing os_sem.o(.text.OSSemDel), (364 bytes).
    Removing os_sem.o(.ARM.exidx.text.OSSemDel), (8 bytes).
    Removing os_sem.o(.text.OSSemPend), (332 bytes).
    Removing os_sem.o(.ARM.exidx.text.OSSemPend), (8 bytes).
    Removing os_sem.o(.text.OSSemPendAbort), (228 bytes).
    Removing os_sem.o(.ARM.exidx.text.OSSemPendAbort), (8 bytes).
    Removing os_sem.o(.text.OSSemPost), (162 bytes).
    Removing os_sem.o(.ARM.exidx.text.OSSemPost), (8 bytes).
    Removing os_sem.o(.text.OSSemQuery), (172 bytes).
    Removing os_sem.o(.ARM.exidx.text.OSSemQuery), (8 bytes).
    Removing os_sem.o(.text.OSSemSet), (126 bytes).
    Removing os_sem.o(.ARM.exidx.text.OSSemSet), (8 bytes).
    Removing os_sem.o(.rodata.str1.1), (2 bytes).
    Removing os_task.o(.text), (0 bytes).
    Removing os_task.o(.text.OSTaskChangePrio), (742 bytes).
    Removing os_task.o(.ARM.exidx.text.OSTaskChangePrio), (8 bytes).
    Removing os_task.o(.text.OSTaskCreate), (282 bytes).
    Removing os_task.o(.ARM.exidx.text.OSTaskCreate), (8 bytes).
    Removing os_task.o(.ARM.exidx.text.OSTaskCreateExt), (8 bytes).
    Removing os_task.o(.ARM.exidx.text.OS_TaskStkClr), (8 bytes).
    Removing os_task.o(.ARM.exidx.text.OSTaskDel), (8 bytes).
    Removing os_task.o(.text.OSTaskDelReq), (234 bytes).
    Removing os_task.o(.ARM.exidx.text.OSTaskDelReq), (8 bytes).
    Removing os_task.o(.text.OSTaskNameGet), (276 bytes).
    Removing os_task.o(.ARM.exidx.text.OSTaskNameGet), (8 bytes).
    Removing os_task.o(.ARM.exidx.text.OSTaskNameSet), (8 bytes).
    Removing os_task.o(.text.OSTaskResume), (298 bytes).
    Removing os_task.o(.ARM.exidx.text.OSTaskResume), (8 bytes).
    Removing os_task.o(.ARM.exidx.text.OSTaskStkChk), (8 bytes).
    Removing os_task.o(.ARM.exidx.text.OSTaskSuspend), (8 bytes).
    Removing os_task.o(.text.OSTaskQuery), (204 bytes).
    Removing os_task.o(.ARM.exidx.text.OSTaskQuery), (8 bytes).
    Removing os_task.o(.text.OSTaskRegGet), (170 bytes).
    Removing os_task.o(.ARM.exidx.text.OSTaskRegGet), (8 bytes).
    Removing os_task.o(.text.OSTaskRegGetID), (114 bytes).
    Removing os_task.o(.ARM.exidx.text.OSTaskRegGetID), (8 bytes).
    Removing os_task.o(.text.OSTaskRegSet), (158 bytes).
    Removing os_task.o(.ARM.exidx.text.OSTaskRegSet), (8 bytes).
    Removing os_task.o(.ARM.exidx.text.OS_TaskReturn), (8 bytes).
    Removing os_time.o(.text), (0 bytes).
    Removing os_time.o(.ARM.exidx.text.OSTimeDly), (8 bytes).
    Removing os_time.o(.text.OSTimeDlyHMSM), (246 bytes).
    Removing os_time.o(.ARM.exidx.text.OSTimeDlyHMSM), (8 bytes).
    Removing os_time.o(.text.OSTimeDlyResume), (292 bytes).
    Removing os_time.o(.ARM.exidx.text.OSTimeDlyResume), (8 bytes).
    Removing os_time.o(.text.OSTimeGet), (48 bytes).
    Removing os_time.o(.ARM.exidx.text.OSTimeGet), (8 bytes).
    Removing os_time.o(.text.OSTimeSet), (48 bytes).
    Removing os_time.o(.ARM.exidx.text.OSTimeSet), (8 bytes).
    Removing os_tmr.o(.text), (0 bytes).
    Removing app_hooks.o(.text), (0 bytes).
    Removing app_hooks.o(.ARM.exidx.text.App_TaskCreateHook), (8 bytes).
    Removing app_hooks.o(.ARM.exidx.text.App_TaskDelHook), (8 bytes).
    Removing app_hooks.o(.ARM.exidx.text.App_TaskIdleHook), (8 bytes).
    Removing app_hooks.o(.ARM.exidx.text.App_TaskStatHook), (8 bytes).
    Removing app_hooks.o(.ARM.exidx.text.App_TaskReturnHook), (8 bytes).
    Removing app_hooks.o(.ARM.exidx.text.App_TaskSwHook), (8 bytes).
    Removing app_hooks.o(.ARM.exidx.text.App_TCBInitHook), (8 bytes).
    Removing os_cpu_c.o(.text), (0 bytes).
    Removing os_cpu_c.o(.ARM.exidx.text.OSInitHookBegin), (8 bytes).
    Removing os_cpu_c.o(.ARM.exidx.text.OSInitHookEnd), (8 bytes).
    Removing os_cpu_c.o(.ARM.exidx.text.OSTaskCreateHook), (8 bytes).
    Removing os_cpu_c.o(.ARM.exidx.text.OSTaskDelHook), (8 bytes).
    Removing os_cpu_c.o(.ARM.exidx.text.OSTaskIdleHook), (8 bytes).
    Removing os_cpu_c.o(.ARM.exidx.text.OSTaskReturnHook), (8 bytes).
    Removing os_cpu_c.o(.ARM.exidx.text.OSTaskStatHook), (8 bytes).
    Removing os_cpu_c.o(.ARM.exidx.text.OSTaskStkInit), (8 bytes).
    Removing os_cpu_c.o(.ARM.exidx.text.OSTaskSwHook), (8 bytes).
    Removing os_cpu_c.o(.ARM.exidx.text.OSTCBInitHook), (8 bytes).
    Removing os_cpu_c.o(.ARM.exidx.text.OSTimeTickHook), (8 bytes).
    Removing os_cpu_c.o(.ARM.exidx.text.OS_CPU_SysTickHandler), (8 bytes).
    Removing os_cpu_c.o(.text.OS_CPU_SysTickInitFreq), (34 bytes).
    Removing os_cpu_c.o(.ARM.exidx.text.OS_CPU_SysTickInitFreq), (8 bytes).
    Removing os_cpu_c.o(.text.OS_CPU_SysTickInit), (84 bytes).
    Removing os_cpu_c.o(.ARM.exidx.text.OS_CPU_SysTickInit), (8 bytes).
    Removing sdd1306.o(.text), (0 bytes).
    Removing sdd1306.o(.ARM.exidx.text.sdd1306_init), (8 bytes).
    Removing sdd1306.o(.ARM.exidx.text.sdd1306_draw), (8 bytes).
    Removing sdd1306.o(.ARM.exidx.text.sdd1306_clear_area), (8 bytes).
    Removing sdd1306.o(.rodata..L__const.sdd1306_init.temp), (12 bytes).
    Removing veml6040.o(.text), (0 bytes).
    Removing veml6040.o(.ARM.exidx.text.veml6040_init), (8 bytes).
    Removing veml6040.o(.ARM.exidx.text.veml6040_get_data_raw), (8 bytes).
    Removing veml6040.o(.rodata..L__const.veml6040_init.cmd), (3 bytes).
    Removing veml6040.o(.rodata..L__const.veml6040_get_data_raw.cmd), (1 bytes).
    Removing qep_hsm.o(.text), (0 bytes).
    Removing qep_hsm.o(.ARM.exidx.text.QHsm_ctor), (8 bytes).
    Removing qep_hsm.o(.ARM.exidx.text.QHsm_init_), (8 bytes).
    Removing qep_hsm.o(.ARM.exidx.text.QHsm_dispatch_), (8 bytes).
    Removing qep_hsm.o(.ARM.exidx.text.QHsm_top), (8 bytes).
    Removing qep_hsm.o(.ARM.exidx.text.QEvt_verify_), (8 bytes).
    Removing qep_hsm.o(.ARM.exidx.text.QHsm_tran_), (8 bytes).
    Removing qep_hsm.o(.text.QHsm_isIn), (148 bytes).
    Removing qep_hsm.o(.ARM.exidx.text.QHsm_isIn), (8 bytes).
    Removing qep_hsm.o(.text.QHsm_childState), (156 bytes).
    Removing qep_hsm.o(.ARM.exidx.text.QHsm_childState), (8 bytes).
    Removing qep_hsm.o(.rodata.QP_versionStr), (8 bytes).
    Removing qep_msm.o(.text), (0 bytes).
    Removing qep_msm.o(.text.QMsm_ctor), (40 bytes).
    Removing qep_msm.o(.ARM.exidx.text.QMsm_ctor), (8 bytes).
    Removing qep_msm.o(.text.QMsm_init_), (190 bytes).
    Removing qep_msm.o(.ARM.exidx.text.QMsm_init_), (8 bytes).
    Removing qep_msm.o(.text.QMsm_dispatch_), (646 bytes).
    Removing qep_msm.o(.ARM.exidx.text.QMsm_dispatch_), (8 bytes).
    Removing qep_msm.o(.text.QMsm_execTatbl_), (142 bytes).
    Removing qep_msm.o(.ARM.exidx.text.QMsm_execTatbl_), (8 bytes).
    Removing qep_msm.o(.text.QEvt_verify_), (44 bytes).
    Removing qep_msm.o(.ARM.exidx.text.QEvt_verify_), (8 bytes).
    Removing qep_msm.o(.text.QMsm_exitToTranSource_), (118 bytes).
    Removing qep_msm.o(.ARM.exidx.text.QMsm_exitToTranSource_), (8 bytes).
    Removing qep_msm.o(.text.QMsm_enterHistory_), (206 bytes).
    Removing qep_msm.o(.ARM.exidx.text.QMsm_enterHistory_), (8 bytes).
    Removing qep_msm.o(.text.QMsm_isInState), (66 bytes).
    Removing qep_msm.o(.ARM.exidx.text.QMsm_isInState), (8 bytes).
    Removing qep_msm.o(.text.QMsm_childStateObj), (184 bytes).
    Removing qep_msm.o(.ARM.exidx.text.QMsm_childStateObj), (8 bytes).
    Removing qep_msm.o(.rodata.QMsm_ctor.vtable), (8 bytes).
    Removing qep_msm.o(.rodata.l_msm_top_s), (20 bytes).
    Removing qep_msm.o(.rodata.Q_this_module_), (8 bytes).
    Removing qf_act.o(.text), (0 bytes).
    Removing qf_act.o(.ARM.exidx.text.QF_bzero_), (8 bytes).
    Removing qf_act.o(.text.QF_LOG2), (104 bytes).
    Removing qf_act.o(.ARM.exidx.text.QF_LOG2), (8 bytes).
    Removing qf_act.o(.rodata.QF_LOG2.log2LUT), (16 bytes).
    Removing qf_defer.o(.text), (0 bytes).
    Removing qf_defer.o(.text.QActive_defer), (40 bytes).
    Removing qf_defer.o(.ARM.exidx.text.QActive_defer), (8 bytes).
    Removing qf_defer.o(.text.QActive_recall), (128 bytes).
    Removing qf_defer.o(.ARM.exidx.text.QActive_recall), (8 bytes).
    Removing qf_defer.o(.text.QEvt_getPoolId_), (16 bytes).
    Removing qf_defer.o(.ARM.exidx.text.QEvt_getPoolId_), (8 bytes).
    Removing qf_defer.o(.text.QEvt_refCtr_dec_), (16 bytes).
    Removing qf_defer.o(.ARM.exidx.text.QEvt_refCtr_dec_), (8 bytes).
    Removing qf_defer.o(.text.QActive_flushDeferred), (66 bytes).
    Removing qf_defer.o(.ARM.exidx.text.QActive_flushDeferred), (8 bytes).
    Removing qf_defer.o(.rodata.Q_this_module_), (9 bytes).
    Removing qf_dyn.o(.text), (0 bytes).
    Removing qf_dyn.o(.ARM.exidx.text.QF_poolInit), (8 bytes).
    Removing qf_dyn.o(.text.QF_poolGetMaxBlockSize), (24 bytes).
    Removing qf_dyn.o(.ARM.exidx.text.QF_poolGetMaxBlockSize), (8 bytes).
    Removing qf_dyn.o(.text.QF_getPoolMin), (108 bytes).
    Removing qf_dyn.o(.ARM.exidx.text.QF_getPoolMin), (8 bytes).
    Removing qf_dyn.o(.ARM.exidx.text.QF_newX_), (8 bytes).
    Removing qf_dyn.o(.ARM.exidx.text.QF_gc), (8 bytes).
    Removing qf_dyn.o(.ARM.exidx.text.QEvt_verify_), (8 bytes).
    Removing qf_dyn.o(.ARM.exidx.text.QEvt_getPoolId_), (8 bytes).
    Removing qf_dyn.o(.ARM.exidx.text.QEvt_refCtr_dec_), (8 bytes).
    Removing qf_dyn.o(.text.QF_newRef_), (108 bytes).
    Removing qf_dyn.o(.ARM.exidx.text.QF_newRef_), (8 bytes).
    Removing qf_dyn.o(.text.QEvt_refCtr_inc_), (16 bytes).
    Removing qf_dyn.o(.ARM.exidx.text.QEvt_refCtr_inc_), (8 bytes).
    Removing qf_dyn.o(.text.QF_deleteRef_), (70 bytes).
    Removing qf_dyn.o(.ARM.exidx.text.QF_deleteRef_), (8 bytes).
    Removing qf_mem.o(.text), (0 bytes).
    Removing qf_mem.o(.ARM.exidx.text.QMPool_init), (8 bytes).
    Removing qf_mem.o(.ARM.exidx.text.QMPool_get), (8 bytes).
    Removing qf_mem.o(.ARM.exidx.text.QMPool_put), (8 bytes).
    Removing qf_ps.o(.text), (0 bytes).
    Removing qf_ps.o(.text.QActive_psInit), (88 bytes).
    Removing qf_ps.o(.ARM.exidx.text.QActive_psInit), (8 bytes).
    Removing qf_ps.o(.text.QPSet_setEmpty), (14 bytes).
    Removing qf_ps.o(.ARM.exidx.text.QPSet_setEmpty), (8 bytes).
    Removing qf_ps.o(.text.QPSet_update_), (20 bytes).
    Removing qf_ps.o(.ARM.exidx.text.QPSet_update_), (8 bytes).
    Removing qf_ps.o(.text.QActive_publish_), (420 bytes).
    Removing qf_ps.o(.ARM.exidx.text.QActive_publish_), (8 bytes).
    Removing qf_ps.o(.text.QPSet_verify_), (28 bytes).
    Removing qf_ps.o(.ARM.exidx.text.QPSet_verify_), (8 bytes).
    Removing qf_ps.o(.text.QEvt_getPoolId_), (16 bytes).
    Removing qf_ps.o(.ARM.exidx.text.QEvt_getPoolId_), (8 bytes).
    Removing qf_ps.o(.text.QEvt_refCtr_inc_), (16 bytes).
    Removing qf_ps.o(.ARM.exidx.text.QEvt_refCtr_inc_), (8 bytes).
    Removing qf_ps.o(.text.QPSet_notEmpty), (18 bytes).
    Removing qf_ps.o(.ARM.exidx.text.QPSet_notEmpty), (8 bytes).
    Removing qf_ps.o(.text.QPSet_findMax), (18 bytes).
    Removing qf_ps.o(.ARM.exidx.text.QPSet_findMax), (8 bytes).
    Removing qf_ps.o(.text.QPSet_remove), (26 bytes).
    Removing qf_ps.o(.ARM.exidx.text.QPSet_remove), (8 bytes).
    Removing qf_ps.o(.text.QActive_subscribe), (204 bytes).
    Removing qf_ps.o(.ARM.exidx.text.QActive_subscribe), (8 bytes).
    Removing qf_ps.o(.text.QPSet_insert), (26 bytes).
    Removing qf_ps.o(.ARM.exidx.text.QPSet_insert), (8 bytes).
    Removing qf_ps.o(.text.QActive_unsubscribe), (204 bytes).
    Removing qf_ps.o(.ARM.exidx.text.QActive_unsubscribe), (8 bytes).
    Removing qf_ps.o(.text.QActive_unsubscribeAll), (220 bytes).
    Removing qf_ps.o(.ARM.exidx.text.QActive_unsubscribeAll), (8 bytes).
    Removing qf_ps.o(.text.QPSet_hasElement), (24 bytes).
    Removing qf_ps.o(.ARM.exidx.text.QPSet_hasElement), (8 bytes).
    Removing qf_ps.o(.bss.QActive_subscrList_), (4 bytes).
    Removing qf_ps.o(.bss.QActive_maxPubSignal_), (4 bytes).
    Removing qf_ps.o(.rodata.Q_this_module_), (6 bytes).
    Removing qf_qact.o(.text), (0 bytes).
    Removing qf_qact.o(.ARM.exidx.text.QActive_ctor), (8 bytes).
    Removing qf_qact.o(.ARM.exidx.text.QActive_register_), (8 bytes).
    Removing qf_qact.o(.text.QActive_unregister_), (110 bytes).
    Removing qf_qact.o(.ARM.exidx.text.QActive_unregister_), (8 bytes).
    Removing qf_qeq.o(.text), (0 bytes).
    Removing qf_qeq.o(.text.QEQueue_init), (64 bytes).
    Removing qf_qeq.o(.ARM.exidx.text.QEQueue_init), (8 bytes).
    Removing qf_qeq.o(.text.QEQueue_post), (268 bytes).
    Removing qf_qeq.o(.ARM.exidx.text.QEQueue_post), (8 bytes).
    Removing qf_qeq.o(.text.QEvt_getPoolId_), (16 bytes).
    Removing qf_qeq.o(.ARM.exidx.text.QEvt_getPoolId_), (8 bytes).
    Removing qf_qeq.o(.text.QEvt_refCtr_inc_), (16 bytes).
    Removing qf_qeq.o(.ARM.exidx.text.QEvt_refCtr_inc_), (8 bytes).
    Removing qf_qeq.o(.text.QEQueue_postLIFO), (192 bytes).
    Removing qf_qeq.o(.ARM.exidx.text.QEQueue_postLIFO), (8 bytes).
    Removing qf_qeq.o(.text.QEQueue_get), (164 bytes).
    Removing qf_qeq.o(.ARM.exidx.text.QEQueue_get), (8 bytes).
    Removing qf_qeq.o(.rodata.Q_this_module_), (7 bytes).
    Removing qf_qeq.o(.bss.QEQueue_dummy), (16 bytes).
    Removing qf_qmact.o(.text), (0 bytes).
    Removing qf_qmact.o(.text.QMActive_ctor), (40 bytes).
    Removing qf_qmact.o(.ARM.exidx.text.QMActive_ctor), (8 bytes).
    Removing qf_qmact.o(.rodata.QMActive_ctor.vtable), (8 bytes).
    Removing qf_time.o(.text), (0 bytes).
    Removing qf_time.o(.ARM.exidx.text.QTimeEvt_ctorX), (8 bytes).
    Removing qf_time.o(.ARM.exidx.text.QEvt_ctor), (8 bytes).
    Removing qf_time.o(.ARM.exidx.text.QTimeEvt_armX), (8 bytes).
    Removing qf_time.o(.ARM.exidx.text.QTimeEvt_disarm), (8 bytes).
    Removing qf_time.o(.text.QTimeEvt_rearm), (192 bytes).
    Removing qf_time.o(.ARM.exidx.text.QTimeEvt_rearm), (8 bytes).
    Removing qf_time.o(.text.QTimeEvt_wasDisarmed), (64 bytes).
    Removing qf_time.o(.ARM.exidx.text.QTimeEvt_wasDisarmed), (8 bytes).
    Removing qf_time.o(.text.QTimeEvt_currCtr), (40 bytes).
    Removing qf_time.o(.ARM.exidx.text.QTimeEvt_currCtr), (8 bytes).
    Removing qf_time.o(.ARM.exidx.text.QTimeEvt_tick_), (8 bytes).
    Removing qf_time.o(.text.QTimeEvt_noActive), (138 bytes).
    Removing qf_time.o(.ARM.exidx.text.QTimeEvt_noActive), (8 bytes).
    Removing qf_port.o(.text), (0 bytes).
    Removing qf_port.o(.ARM.exidx.text.QF_init), (8 bytes).
    Removing qf_port.o(.ARM.exidx.text.QF_run), (8 bytes).
    Removing qf_port.o(.text.QF_stop), (8 bytes).
    Removing qf_port.o(.ARM.exidx.text.QF_stop), (8 bytes).
    Removing qf_port.o(.ARM.exidx.text.QActive_start_), (8 bytes).
    Removing qf_port.o(.ARM.exidx.text.task_function), (8 bytes).
    Removing qf_port.o(.text.QActive_setAttr), (84 bytes).
    Removing qf_port.o(.ARM.exidx.text.QActive_setAttr), (8 bytes).
    Removing qf_port.o(.ARM.exidx.text.QActive_post_), (8 bytes).
    Removing qf_port.o(.ARM.exidx.text.QEvt_getPoolId_), (8 bytes).
    Removing qf_port.o(.ARM.exidx.text.QEvt_refCtr_inc_), (8 bytes).
    Removing qf_port.o(.text.QActive_postLIFO_), (114 bytes).
    Removing qf_port.o(.ARM.exidx.text.QActive_postLIFO_), (8 bytes).
    Removing qf_port.o(.ARM.exidx.text.QActive_get_), (8 bytes).
    Removing retarget_io.o(.text), (0 bytes).
    Removing retarget_io.o(.text.ITM_SendChar), (66 bytes).
    Removing retarget_io.o(.ARM.exidx.text.ITM_SendChar), (8 bytes).
    Removing retarget_io.o(.text.ITM_ReceiveChar), (62 bytes).
    Removing retarget_io.o(.ARM.exidx.text.ITM_ReceiveChar), (8 bytes).
    Removing retarget_io.o(.text._sys_open), (132 bytes).
    Removing retarget_io.o(.ARM.exidx.text._sys_open), (8 bytes).
    Removing retarget_io.o(.text._sys_close), (74 bytes).
    Removing retarget_io.o(.ARM.exidx.text._sys_close), (8 bytes).
    Removing retarget_io.o(.text._sys_write), (118 bytes).
    Removing retarget_io.o(.ARM.exidx.text._sys_write), (8 bytes).
    Removing retarget_io.o(.text.stdout_putchar), (16 bytes).
    Removing retarget_io.o(.ARM.exidx.text.stdout_putchar), (8 bytes).
    Removing retarget_io.o(.text._sys_read), (88 bytes).
    Removing retarget_io.o(.ARM.exidx.text._sys_read), (8 bytes).
    Removing retarget_io.o(.text._sys_istty), (72 bytes).
    Removing retarget_io.o(.ARM.exidx.text._sys_istty), (8 bytes).
    Removing retarget_io.o(.text._sys_seek), (82 bytes).
    Removing retarget_io.o(.ARM.exidx.text._sys_seek), (8 bytes).
    Removing retarget_io.o(.text._sys_flen), (72 bytes).
    Removing retarget_io.o(.ARM.exidx.text._sys_flen), (8 bytes).
    Removing retarget_io.o(.data.ITM_RxBuffer), (4 bytes).
    Removing retarget_io.o(.rodata.__stdin_name), (7 bytes).
    Removing retarget_io.o(.rodata.__stdout_name), (8 bytes).
    Removing retarget_io.o(.rodata.__stderr_name), (8 bytes).
    Removing retarget_io.o(.rodata.str1.1), (23 bytes).
    Removing system_stm32f4xx.o(.text), (0 bytes).
    Removing system_stm32f4xx.o(.ARM.exidx.text.SystemInit), (8 bytes).
    Removing system_stm32f4xx.o(.ARM.exidx.text.SystemCoreClockUpdate), (8 bytes).

523 unused section(s) (total 28326 bytes) removed from the image.

==============================================================================

Image Symbol Table

    Local Symbols

    Symbol Name                              Value     Ov Type        Size  Object(Section)

    ../clib/angel/boardlib.s                 0x00000000   Number         0  boardinit1.o ABSOLUTE
    ../clib/angel/boardlib.s                 0x00000000   Number         0  boardinit2.o ABSOLUTE
    ../clib/angel/boardlib.s                 0x00000000   Number         0  boardinit3.o ABSOLUTE
    ../clib/angel/boardlib.s                 0x00000000   Number         0  boardshut.o ABSOLUTE
    ../clib/angel/dczerorl.s                 0x00000000   Number         0  __dczerorl.o ABSOLUTE
    ../clib/angel/handlers.s                 0x00000000   Number         0  __scatter_zi.o ABSOLUTE
    ../clib/angel/kernel.s                   0x00000000   Number         0  __rtentry.o ABSOLUTE
    ../clib/angel/kernel.s                   0x00000000   Number         0  rtexit.o ABSOLUTE
    ../clib/angel/kernel.s                   0x00000000   Number         0  __rtentry2.o ABSOLUTE
    ../clib/angel/kernel.s                   0x00000000   Number         0  __rtentry4.o ABSOLUTE
    ../clib/angel/kernel.s                   0x00000000   Number         0  rtexit2.o ABSOLUTE
    ../clib/angel/rt.s                       0x00000000   Number         0  rt_heap_descriptor.o ABSOLUTE
    ../clib/angel/rt.s                       0x00000000   Number         0  rt_heap_descriptor_intlibspace.o ABSOLUTE
    ../clib/angel/rt.s                       0x00000000   Number         0  rt_raise.o ABSOLUTE
    ../clib/angel/scatter.s                  0x00000000   Number         0  __scatter.o ABSOLUTE
    ../clib/angel/startup.s                  0x00000000   Number         0  __main.o ABSOLUTE
    ../clib/angel/sys.s                      0x00000000   Number         0  mutex_dummy.o ABSOLUTE
    ../clib/angel/sys.s                      0x00000000   Number         0  libspace.o ABSOLUTE
    ../clib/angel/sys.s                      0x00000000   Number         0  use_no_semi.o ABSOLUTE
    ../clib/angel/sys.s                      0x00000000   Number         0  indicate_semi.o ABSOLUTE
    ../clib/angel/sys.s                      0x00000000   Number         0  sys_stackheap_outer.o ABSOLUTE
    ../clib/angel/sysapp.c                   0x00000000   Number         0  sys_command.o ABSOLUTE
    ../clib/angel/sysapp.c                   0x00000000   Number         0  sys_command_hlt.o ABSOLUTE
    ../clib/angel/sysapp.c                   0x00000000   Number         0  sys_exit.o ABSOLUTE
    ../clib/angel/sysapp.c                   0x00000000   Number         0  sys_exit_hlt.o ABSOLUTE
    ../clib/angel/sysapp.c                   0x00000000   Number         0  sys_wrch.o ABSOLUTE
    ../clib/angel/sysapp.c                   0x00000000   Number         0  sys_wrch_hlt.o ABSOLUTE
    ../clib/armsys.c                         0x00000000   Number         0  _get_argv.o ABSOLUTE
    ../clib/armsys.c                         0x00000000   Number         0  argv_veneer.o ABSOLUTE
    ../clib/armsys.c                         0x00000000   Number         0  argv_veneer.o ABSOLUTE
    ../clib/armsys.c                         0x00000000   Number         0  _get_argv_nomalloc.o ABSOLUTE
    ../clib/armsys.c                         0x00000000   Number         0  no_argv.o ABSOLUTE
    ../clib/heap1.c                          0x00000000   Number         0  h1_alloc.o ABSOLUTE
    ../clib/heap1.c                          0x00000000   Number         0  h1_alloc_threads.o ABSOLUTE
    ../clib/heap1.c                          0x00000000   Number         0  h1_init.o ABSOLUTE
    ../clib/heap1.c                          0x00000000   Number         0  h1_free.o ABSOLUTE
    ../clib/heap1.c                          0x00000000   Number         0  h1_init_threads.o ABSOLUTE
    ../clib/heap1.c                          0x00000000   Number         0  h1_free_threads.o ABSOLUTE
    ../clib/heap1.c                          0x00000000   Number         0  h1_extend.o ABSOLUTE
    ../clib/heap1.c                          0x00000000   Number         0  h1_extend_threads.o ABSOLUTE
    ../clib/heap1.c                          0x00000000   Number         0  h1_final.o ABSOLUTE
    ../clib/heap1.c                          0x00000000   Number         0  h1_final_threads.o ABSOLUTE
    ../clib/heap2.c                          0x00000000   Number         0  heap2.o ABSOLUTE
    ../clib/heap2.c                          0x00000000   Number         0  heap2_threads.o ABSOLUTE
    ../clib/heap2.c                          0x00000000   Number         0  fdtree.o ABSOLUTE
    ../clib/heapalloc.c                      0x00000000   Number         0  malloc.o ABSOLUTE
    ../clib/heapalloc.c                      0x00000000   Number         0  hguard.o ABSOLUTE
    ../clib/heapalloc.c                      0x00000000   Number         0  init_alloc.o ABSOLUTE
    ../clib/heapalloc.c                      0x00000000   Number         0  free.o ABSOLUTE
    ../clib/heapalloc.c                      0x00000000   Number         0  heapstubs.o ABSOLUTE
    ../clib/heapalloc.c                      0x00000000   Number         0  hrguard.o ABSOLUTE
    ../clib/heapalloc.c                      0x00000000   Number         0  term_alloc.o ABSOLUTE
    ../clib/heapaux.c                        0x00000000   Number         0  heapauxi.o ABSOLUTE
    ../clib/heapaux.c                        0x00000000   Number         0  heapauxa.o ABSOLUTE
    ../clib/libinit.s                        0x00000000   Number         0  libinit2.o ABSOLUTE
    ../clib/libinit.s                        0x00000000   Number         0  libinit.o ABSOLUTE
    ../clib/libinit.s                        0x00000000   Number         0  libshutdown.o ABSOLUTE
    ../clib/libinit.s                        0x00000000   Number         0  libshutdown2.o ABSOLUTE
    ../clib/maybe.s                          0x00000000   Number         0  maybetermalloc1.o ABSOLUTE
    ../clib/maybe.s                          0x00000000   Number         0  maybetermalloc2.o ABSOLUTE
    ../clib/memcpset.s                       0x00000000   Number         0  rt_memcpy_v6.o ABSOLUTE
    ../clib/memcpset.s                       0x00000000   Number         0  strcmpv7em.o ABSOLUTE
    ../clib/memcpset.s                       0x00000000   Number         0  rt_memcpy_w.o ABSOLUTE
    ../clib/signal.c                         0x00000000   Number         0  defsig_rtmem_outer.o ABSOLUTE
    ../clib/signal.c                         0x00000000   Number         0  defsig_rtmem_formal.o ABSOLUTE
    ../clib/signal.c                         0x00000000   Number         0  defsig_exit.o ABSOLUTE
    ../clib/signal.c                         0x00000000   Number         0  defsig_rtmem_inner.o ABSOLUTE
    ../clib/signal.c                         0x00000000   Number         0  __raise.o ABSOLUTE
    ../clib/signal.c                         0x00000000   Number         0  defsig_general.o ABSOLUTE
    ../clib/signal.c                         0x00000000   Number         0  defsig_abrt_inner.o ABSOLUTE
    ../clib/signal.c                         0x00000000   Number         0  defsig_fpe_inner.o ABSOLUTE
    ../clib/signal.c                         0x00000000   Number         0  defsig_rtred_inner.o ABSOLUTE
    ../clib/signal.c                         0x00000000   Number         0  defsig_stak_inner.o ABSOLUTE
    ../clib/signal.c                         0x00000000   Number         0  defsig_pvfn_inner.o ABSOLUTE
    ../clib/signal.c                         0x00000000   Number         0  defsig_cppl_inner.o ABSOLUTE
    ../clib/signal.c                         0x00000000   Number         0  defsig_segv_inner.o ABSOLUTE
    ../clib/signal.c                         0x00000000   Number         0  defsig_other.o ABSOLUTE
    ../clib/signal.s                         0x00000000   Number         0  defsig.o ABSOLUTE
    ../clib/stdlib.c                         0x00000000   Number         0  exit.o ABSOLUTE
    ../fplib/fpinit.s                        0x00000000   Number         0  fpinit.o ABSOLUTE
    ../fplib/fpinit_empty.s                  0x00000000   Number         0  fpinit_empty.o ABSOLUTE
    ..\UCOSII\PORT\os_cpu_a.asm              0x00000000   Number         0  os_cpu_a.o ABSOLUTE
    RTE/Device/STM32F411CEUx/startup_stm32f411xe.s 0x00000000   Number         0  startup_stm32f411xe.o ABSOLUTE
    app.c                                    0x00000000   Number         0  app.o ABSOLUTE
    app_hooks.c                              0x00000000   Number         0  app_hooks.o ABSOLUTE
    bsp_gpio.c                               0x00000000   Number         0  bsp_gpio.o ABSOLUTE
    bsp_i2c.c                                0x00000000   Number         0  bsp_i2c.o ABSOLUTE
    bsp_spi.c                                0x00000000   Number         0  bsp_spi.o ABSOLUTE
    bsp_system.c                             0x00000000   Number         0  bsp_system.o ABSOLUTE
    central.c                                0x00000000   Number         0  central.o ABSOLUTE
    dc.s                                     0x00000000   Number         0  dc.o ABSOLUTE
    main.c                                   0x00000000   Number         0  main.o ABSOLUTE
    os_core.c                                0x00000000   Number         0  os_core.o ABSOLUTE
    os_cpu_c.c                               0x00000000   Number         0  os_cpu_c.o ABSOLUTE
    os_flag.c                                0x00000000   Number         0  os_flag.o ABSOLUTE
    os_mbox.c                                0x00000000   Number         0  os_mbox.o ABSOLUTE
    os_mem.c                                 0x00000000   Number         0  os_mem.o ABSOLUTE
    os_mutex.c                               0x00000000   Number         0  os_mutex.o ABSOLUTE
    os_q.c                                   0x00000000   Number         0  os_q.o ABSOLUTE
    os_sem.c                                 0x00000000   Number         0  os_sem.o ABSOLUTE
    os_task.c                                0x00000000   Number         0  os_task.o ABSOLUTE
    os_time.c                                0x00000000   Number         0  os_time.o ABSOLUTE
    os_tmr.c                                 0x00000000   Number         0  os_tmr.o ABSOLUTE
    qep_hsm.c                                0x00000000   Number         0  qep_hsm.o ABSOLUTE
    qep_msm.c                                0x00000000   Number         0  qep_msm.o ABSOLUTE
    qf_act.c                                 0x00000000   Number         0  qf_act.o ABSOLUTE
    qf_defer.c                               0x00000000   Number         0  qf_defer.o ABSOLUTE
    qf_dyn.c                                 0x00000000   Number         0  qf_dyn.o ABSOLUTE
    qf_mem.c                                 0x00000000   Number         0  qf_mem.o ABSOLUTE
    qf_port.c                                0x00000000   Number         0  qf_port.o ABSOLUTE
    qf_ps.c                                  0x00000000   Number         0  qf_ps.o ABSOLUTE
    qf_qact.c                                0x00000000   Number         0  qf_qact.o ABSOLUTE
    qf_qeq.c                                 0x00000000   Number         0  qf_qeq.o ABSOLUTE
    qf_qmact.c                               0x00000000   Number         0  qf_qmact.o ABSOLUTE
    qf_time.c                                0x00000000   Number         0  qf_time.o ABSOLUTE
    retarget_io.c                            0x00000000   Number         0  retarget_io.o ABSOLUTE
    sdd1306.c                                0x00000000   Number         0  sdd1306.o ABSOLUTE
    stm32f4xx_it.c                           0x00000000   Number         0  stm32f4xx_it.o ABSOLUTE
    system_stm32f4xx.c                       0x00000000   Number         0  system_stm32f4xx.o ABSOLUTE
    tickerkeeper.c                           0x00000000   Number         0  tickerkeeper.o ABSOLUTE
    veml6040.c                               0x00000000   Number         0  veml6040.o ABSOLUTE
    RESET                                    0x08000000   Section      408  startup_stm32f411xe.o(RESET)
    !!!main                                  0x08000198   Section        8  __main.o(!!!main)
    !!!scatter                               0x080001a0   Section       52  __scatter.o(!!!scatter)
    !!dczerorl                               0x080001d4   Section       58  __dczerorl.o(!!dczerorl)
    !!handler_zi                             0x08000210   Section       28  __scatter_zi.o(!!handler_zi)
    .ARM.Collect$$libinit$$00000000          0x0800022c   Section        2  libinit.o(.ARM.Collect$$libinit$$00000000)
    .ARM.Collect$$libinit$$00000002          0x0800022e   Section        0  libinit2.o(.ARM.Collect$$libinit$$00000002)
    .ARM.Collect$$libinit$$00000004          0x0800022e   Section        0  libinit2.o(.ARM.Collect$$libinit$$00000004)
    .ARM.Collect$$libinit$$00000006          0x0800022e   Section        0  libinit2.o(.ARM.Collect$$libinit$$00000006)
    .ARM.Collect$$libinit$$0000000C          0x0800022e   Section        0  libinit2.o(.ARM.Collect$$libinit$$0000000C)
    .ARM.Collect$$libinit$$0000000E          0x0800022e   Section        0  libinit2.o(.ARM.Collect$$libinit$$0000000E)
    .ARM.Collect$$libinit$$00000010          0x0800022e   Section        0  libinit2.o(.ARM.Collect$$libinit$$00000010)
    .ARM.Collect$$libinit$$00000013          0x0800022e   Section        0  libinit2.o(.ARM.Collect$$libinit$$00000013)
    .ARM.Collect$$libinit$$00000015          0x0800022e   Section        0  libinit2.o(.ARM.Collect$$libinit$$00000015)
    .ARM.Collect$$libinit$$00000017          0x0800022e   Section        0  libinit2.o(.ARM.Collect$$libinit$$00000017)
    .ARM.Collect$$libinit$$00000019          0x0800022e   Section        0  libinit2.o(.ARM.Collect$$libinit$$00000019)
    .ARM.Collect$$libinit$$0000001B          0x0800022e   Section        0  libinit2.o(.ARM.Collect$$libinit$$0000001B)
    .ARM.Collect$$libinit$$0000001D          0x0800022e   Section        0  libinit2.o(.ARM.Collect$$libinit$$0000001D)
    .ARM.Collect$$libinit$$0000001F          0x0800022e   Section        0  libinit2.o(.ARM.Collect$$libinit$$0000001F)
    .ARM.Collect$$libinit$$00000021          0x0800022e   Section        0  libinit2.o(.ARM.Collect$$libinit$$00000021)
    .ARM.Collect$$libinit$$00000023          0x0800022e   Section        0  libinit2.o(.ARM.Collect$$libinit$$00000023)
    .ARM.Collect$$libinit$$00000025          0x0800022e   Section        0  libinit2.o(.ARM.Collect$$libinit$$00000025)
    .ARM.Collect$$libinit$$00000027          0x0800022e   Section        0  libinit2.o(.ARM.Collect$$libinit$$00000027)
    .ARM.Collect$$libinit$$0000002E          0x0800022e   Section        0  libinit2.o(.ARM.Collect$$libinit$$0000002E)
    .ARM.Collect$$libinit$$00000030          0x0800022e   Section        0  libinit2.o(.ARM.Collect$$libinit$$00000030)
    .ARM.Collect$$libinit$$00000032          0x0800022e   Section        0  libinit2.o(.ARM.Collect$$libinit$$00000032)
    .ARM.Collect$$libinit$$00000034          0x0800022e   Section        0  libinit2.o(.ARM.Collect$$libinit$$00000034)
    .ARM.Collect$$libinit$$00000035          0x0800022e   Section        2  libinit2.o(.ARM.Collect$$libinit$$00000035)
    .ARM.Collect$$libshutdown$$00000000      0x08000230   Section        2  libshutdown.o(.ARM.Collect$$libshutdown$$00000000)
    .ARM.Collect$$libshutdown$$00000002      0x08000232   Section        0  libshutdown2.o(.ARM.Collect$$libshutdown$$00000002)
    .ARM.Collect$$libshutdown$$00000004      0x08000232   Section        0  libshutdown2.o(.ARM.Collect$$libshutdown$$00000004)
    .ARM.Collect$$libshutdown$$00000007      0x08000232   Section        0  libshutdown2.o(.ARM.Collect$$libshutdown$$00000007)
    .ARM.Collect$$libshutdown$$0000000A      0x08000232   Section        0  libshutdown2.o(.ARM.Collect$$libshutdown$$0000000A)
    .ARM.Collect$$libshutdown$$0000000C      0x08000232   Section        0  libshutdown2.o(.ARM.Collect$$libshutdown$$0000000C)
    .ARM.Collect$$libshutdown$$0000000F      0x08000232   Section        0  libshutdown2.o(.ARM.Collect$$libshutdown$$0000000F)
    .ARM.Collect$$libshutdown$$00000010      0x08000232   Section        2  libshutdown2.o(.ARM.Collect$$libshutdown$$00000010)
    .ARM.Collect$$rtentry$$00000000          0x08000234   Section        0  __rtentry.o(.ARM.Collect$$rtentry$$00000000)
    .ARM.Collect$$rtentry$$00000002          0x08000234   Section        0  __rtentry2.o(.ARM.Collect$$rtentry$$00000002)
    .ARM.Collect$$rtentry$$00000004          0x08000234   Section        6  __rtentry4.o(.ARM.Collect$$rtentry$$00000004)
    .ARM.Collect$$rtentry$$00000009          0x0800023a   Section        0  __rtentry2.o(.ARM.Collect$$rtentry$$00000009)
    .ARM.Collect$$rtentry$$0000000A          0x0800023a   Section        4  __rtentry2.o(.ARM.Collect$$rtentry$$0000000A)
    .ARM.Collect$$rtentry$$0000000C          0x0800023e   Section        0  __rtentry2.o(.ARM.Collect$$rtentry$$0000000C)
    .ARM.Collect$$rtentry$$0000000D          0x0800023e   Section        8  __rtentry2.o(.ARM.Collect$$rtentry$$0000000D)
    .ARM.Collect$$rtexit$$00000000           0x08000246   Section        2  rtexit.o(.ARM.Collect$$rtexit$$00000000)
    .ARM.Collect$$rtexit$$00000002           0x08000248   Section        0  rtexit2.o(.ARM.Collect$$rtexit$$00000002)
    .ARM.Collect$$rtexit$$00000003           0x08000248   Section        4  rtexit2.o(.ARM.Collect$$rtexit$$00000003)
    .ARM.Collect$$rtexit$$00000004           0x0800024c   Section        6  rtexit2.o(.ARM.Collect$$rtexit$$00000004)
    .text                                    0x08000254   Section      276  os_cpu_a.o(.text)
    .text                                    0x08000368   Section       64  startup_stm32f411xe.o(.text)
    .text                                    0x080003a8   Section        0  exit.o(.text)
    .text                                    0x080003ba   Section      138  rt_memcpy_v6.o(.text)
    .text                                    0x08000444   Section        0  heapauxi.o(.text)
    .text                                    0x0800044a   Section      100  rt_memcpy_w.o(.text)
    .text                                    0x080004b0   Section        8  libspace.o(.text)
    .text                                    0x080004b8   Section        0  sys_exit.o(.text)
    .text                                    0x080004c4   Section        2  use_no_semi.o(.text)
    .text                                    0x080004c6   Section        0  indicate_semi.o(.text)
    .text                                    0x080004c6   Section       74  sys_stackheap_outer.o(.text)
    [Anonymous Symbol]                       0x08000510   Section        0  app_hooks.o(.text.App_TCBInitHook)
    [Anonymous Symbol]                       0x08000518   Section        0  app_hooks.o(.text.App_TaskCreateHook)
    [Anonymous Symbol]                       0x08000520   Section        0  app_hooks.o(.text.App_TaskDelHook)
    [Anonymous Symbol]                       0x08000528   Section        0  app_hooks.o(.text.App_TaskIdleHook)
    [Anonymous Symbol]                       0x0800052c   Section        0  app_hooks.o(.text.App_TaskReturnHook)
    [Anonymous Symbol]                       0x08000534   Section        0  app_hooks.o(.text.App_TaskStatHook)
    [Anonymous Symbol]                       0x08000538   Section        0  app_hooks.o(.text.App_TaskSwHook)
    [Anonymous Symbol]                       0x0800053c   Section        0  main.o(.text.App_TimeTickHook)
    [Anonymous Symbol]                       0x080005d8   Section        0  stm32f4xx_it.o(.text.BusFault_Handler)
    [Anonymous Symbol]                       0x080005dc   Section        0  central.o(.text.Central_ctor)
    [Anonymous Symbol]                       0x08000604   Section        0  central.o(.text.Central_initial)
    [Anonymous Symbol]                       0x08000694   Section        0  central.o(.text.Central_percentdata)
    [Anonymous Symbol]                       0x08000b2c   Section        0  central.o(.text.Central_rawdata)
    [Anonymous Symbol]                       0x0800110c   Section        0  central.o(.text.Central_started)
    [Anonymous Symbol]                       0x08001264   Section        0  bsp_spi.o(.text.DMA2_Stream2_IRQHandler)
    [Anonymous Symbol]                       0x08001360   Section        0  bsp_spi.o(.text.DMA2_Stream3_IRQHandler)
    [Anonymous Symbol]                       0x080014e0   Section        0  main.o(.text.DebounceSwitch)
    [Anonymous Symbol]                       0x08001530   Section        0  main.o(.text.DebounceSwitch2)
    [Anonymous Symbol]                       0x08001580   Section        0  main.o(.text.DebounceSwitch3)
    [Anonymous Symbol]                       0x080015d0   Section        0  stm32f4xx_it.o(.text.DebugMon_Handler)
    [Anonymous Symbol]                       0x080015d4   Section        0  stm32f4xx_it.o(.text.EXTI0_IRQHandler)
    [Anonymous Symbol]                       0x080015d8   Section        0  stm32f4xx_it.o(.text.EXTI15_10_IRQHandler)
    [Anonymous Symbol]                       0x080015dc   Section        0  stm32f4xx_it.o(.text.HardFault_Handler)
    [Anonymous Symbol]                       0x080015e0   Section        0  stm32f4xx_it.o(.text.MemManage_Handler)
    [Anonymous Symbol]                       0x080015e4   Section        0  stm32f4xx_it.o(.text.NMI_Handler)
    [Anonymous Symbol]                       0x080015e8   Section        0  os_core.o(.text.OSInit)
    [Anonymous Symbol]                       0x08001618   Section        0  os_cpu_c.o(.text.OSInitHookBegin)
    [Anonymous Symbol]                       0x08001674   Section        0  os_cpu_c.o(.text.OSInitHookEnd)
    [Anonymous Symbol]                       0x08001678   Section        0  os_core.o(.text.OSIntEnter)
    [Anonymous Symbol]                       0x080016ac   Section        0  os_core.o(.text.OSIntExit)
    [Anonymous Symbol]                       0x08001780   Section        0  os_q.o(.text.OSQCreate)
    [Anonymous Symbol]                       0x0800189c   Section        0  os_q.o(.text.OSQPend)
    [Anonymous Symbol]                       0x08001a44   Section        0  os_q.o(.text.OSQPost)
    [Anonymous Symbol]                       0x08001b0c   Section        0  os_core.o(.text.OSStart)
    [Anonymous Symbol]                       0x08001b60   Section        0  os_cpu_c.o(.text.OSTCBInitHook)
    [Anonymous Symbol]                       0x08001b70   Section        0  os_task.o(.text.OSTaskCreateExt)
    [Anonymous Symbol]                       0x08001cc4   Section        0  os_cpu_c.o(.text.OSTaskCreateHook)
    [Anonymous Symbol]                       0x08001cd4   Section        0  os_task.o(.text.OSTaskDel)
    [Anonymous Symbol]                       0x08001f18   Section        0  os_cpu_c.o(.text.OSTaskDelHook)
    [Anonymous Symbol]                       0x08001f28   Section        0  os_cpu_c.o(.text.OSTaskIdleHook)
    [Anonymous Symbol]                       0x08001f30   Section        0  os_task.o(.text.OSTaskNameSet)
    [Anonymous Symbol]                       0x0800200c   Section        0  os_cpu_c.o(.text.OSTaskReturnHook)
    [Anonymous Symbol]                       0x0800201c   Section        0  os_cpu_c.o(.text.OSTaskStatHook)
    [Anonymous Symbol]                       0x08002024   Section        0  os_task.o(.text.OSTaskStkChk)
    [Anonymous Symbol]                       0x08002144   Section        0  os_cpu_c.o(.text.OSTaskStkInit)
    [Anonymous Symbol]                       0x08002254   Section        0  os_task.o(.text.OSTaskSuspend)
    [Anonymous Symbol]                       0x080023a8   Section        0  os_cpu_c.o(.text.OSTaskSwHook)
    [Anonymous Symbol]                       0x080023b0   Section        0  os_time.o(.text.OSTimeDly)
    [Anonymous Symbol]                       0x08002464   Section        0  os_core.o(.text.OSTimeTick)
    [Anonymous Symbol]                       0x080025d0   Section        0  os_cpu_c.o(.text.OSTimeTickHook)
    [Anonymous Symbol]                       0x080025d8   Section        0  os_cpu_c.o(.text.OS_CPU_SysTickHandler)
    [Anonymous Symbol]                       0x08002604   Section        0  os_core.o(.text.OS_Dummy)
    [Anonymous Symbol]                       0x08002608   Section        0  os_core.o(.text.OS_EventTaskRdy)
    [Anonymous Symbol]                       0x080026ec   Section        0  os_core.o(.text.OS_EventTaskRemove)
    [Anonymous Symbol]                       0x08002738   Section        0  os_core.o(.text.OS_EventTaskRemoveMulti)
    [Anonymous Symbol]                       0x080027b0   Section        0  os_core.o(.text.OS_EventTaskWait)
    [Anonymous Symbol]                       0x08002834   Section        0  os_core.o(.text.OS_EventWaitListInit)
    [Anonymous Symbol]                       0x0800286c   Section        0  os_flag.o(.text.OS_FlagInit)
    [Anonymous Symbol]                       0x08002914   Section        0  os_flag.o(.text.OS_FlagUnlink)
    OS_InitEventList                         0x0800296d   Thumb Code   178  os_core.o(.text.OS_InitEventList)
    [Anonymous Symbol]                       0x0800296c   Section        0  os_core.o(.text.OS_InitEventList)
    OS_InitMisc                              0x08002a21   Thumb Code   114  os_core.o(.text.OS_InitMisc)
    [Anonymous Symbol]                       0x08002a20   Section        0  os_core.o(.text.OS_InitMisc)
    OS_InitRdyList                           0x08002a95   Thumb Code   106  os_core.o(.text.OS_InitRdyList)
    [Anonymous Symbol]                       0x08002a94   Section        0  os_core.o(.text.OS_InitRdyList)
    OS_InitTCBList                           0x08002b01   Thumb Code   188  os_core.o(.text.OS_InitTCBList)
    [Anonymous Symbol]                       0x08002b00   Section        0  os_core.o(.text.OS_InitTCBList)
    OS_InitTaskIdle                          0x08002bbd   Thumb Code    76  os_core.o(.text.OS_InitTaskIdle)
    [Anonymous Symbol]                       0x08002bbc   Section        0  os_core.o(.text.OS_InitTaskIdle)
    OS_InitTaskStat                          0x08002c09   Thumb Code    76  os_core.o(.text.OS_InitTaskStat)
    [Anonymous Symbol]                       0x08002c08   Section        0  os_core.o(.text.OS_InitTaskStat)
    [Anonymous Symbol]                       0x08002c54   Section        0  os_core.o(.text.OS_MemClr)
    [Anonymous Symbol]                       0x08002c80   Section        0  os_mem.o(.text.OS_MemInit)
    [Anonymous Symbol]                       0x08002d1c   Section        0  os_q.o(.text.OS_QInit)
    [Anonymous Symbol]                       0x08002dac   Section        0  os_core.o(.text.OS_Sched)
    OS_SchedNew                              0x08002e49   Thumb Code    60  os_core.o(.text.OS_SchedNew)
    [Anonymous Symbol]                       0x08002e48   Section        0  os_core.o(.text.OS_SchedNew)
    [Anonymous Symbol]                       0x08002e84   Section        0  os_core.o(.text.OS_TCBInit)
    [Anonymous Symbol]                       0x080030a0   Section        0  os_core.o(.text.OS_TaskIdle)
    [Anonymous Symbol]                       0x080030d8   Section        0  os_task.o(.text.OS_TaskReturn)
    [Anonymous Symbol]                       0x080030f0   Section        0  os_core.o(.text.OS_TaskStat)
    [Anonymous Symbol]                       0x08003244   Section        0  os_core.o(.text.OS_TaskStatStkChk)
    [Anonymous Symbol]                       0x080032bc   Section        0  os_task.o(.text.OS_TaskStkClr)
    [Anonymous Symbol]                       0x08003300   Section        0  stm32f4xx_it.o(.text.OTG_FS_IRQHandler)
    [Anonymous Symbol]                       0x08003304   Section        0  qf_qact.o(.text.QActive_ctor)
    [Anonymous Symbol]                       0x0800332c   Section        0  qf_port.o(.text.QActive_get_)
    [Anonymous Symbol]                       0x08003378   Section        0  qf_port.o(.text.QActive_post_)
    [Anonymous Symbol]                       0x0800346c   Section        0  qf_qact.o(.text.QActive_register_)
    [Anonymous Symbol]                       0x080035b0   Section        0  qf_port.o(.text.QActive_start_)
    QEvt_ctor                                0x080036ad   Thumb Code    38  qf_time.o(.text.QEvt_ctor)
    [Anonymous Symbol]                       0x080036ac   Section        0  qf_time.o(.text.QEvt_ctor)
    QEvt_getPoolId_                          0x080036d5   Thumb Code    16  qf_dyn.o(.text.QEvt_getPoolId_)
    [Anonymous Symbol]                       0x080036d4   Section        0  qf_dyn.o(.text.QEvt_getPoolId_)
    QEvt_getPoolId_                          0x080036e5   Thumb Code    16  qf_port.o(.text.QEvt_getPoolId_)
    [Anonymous Symbol]                       0x080036e4   Section        0  qf_port.o(.text.QEvt_getPoolId_)
    QEvt_refCtr_dec_                         0x080036f5   Thumb Code    16  qf_dyn.o(.text.QEvt_refCtr_dec_)
    [Anonymous Symbol]                       0x080036f4   Section        0  qf_dyn.o(.text.QEvt_refCtr_dec_)
    QEvt_refCtr_inc_                         0x08003705   Thumb Code    16  qf_port.o(.text.QEvt_refCtr_inc_)
    [Anonymous Symbol]                       0x08003704   Section        0  qf_port.o(.text.QEvt_refCtr_inc_)
    QEvt_verify_                             0x08003715   Thumb Code    44  qep_hsm.o(.text.QEvt_verify_)
    [Anonymous Symbol]                       0x08003714   Section        0  qep_hsm.o(.text.QEvt_verify_)
    QEvt_verify_                             0x08003741   Thumb Code    44  qf_dyn.o(.text.QEvt_verify_)
    [Anonymous Symbol]                       0x08003740   Section        0  qf_dyn.o(.text.QEvt_verify_)
    [Anonymous Symbol]                       0x0800376c   Section        0  qf_act.o(.text.QF_bzero_)
    [Anonymous Symbol]                       0x0800379c   Section        0  qf_dyn.o(.text.QF_gc)
    [Anonymous Symbol]                       0x0800385c   Section        0  qf_port.o(.text.QF_init)
    [Anonymous Symbol]                       0x08003864   Section        0  qf_dyn.o(.text.QF_newX_)
    [Anonymous Symbol]                       0x08003984   Section        0  app.o(.text.QF_onStartup)
    [Anonymous Symbol]                       0x08003988   Section        0  qf_dyn.o(.text.QF_poolInit)
    [Anonymous Symbol]                       0x08003a30   Section        0  qf_port.o(.text.QF_run)
    [Anonymous Symbol]                       0x08003a40   Section        0  qep_hsm.o(.text.QHsm_ctor)
    [Anonymous Symbol]                       0x08003a68   Section        0  qep_hsm.o(.text.QHsm_dispatch_)
    [Anonymous Symbol]                       0x08003c98   Section        0  qep_hsm.o(.text.QHsm_init_)
    [Anonymous Symbol]                       0x08003e10   Section        0  qep_hsm.o(.text.QHsm_top)
    [Anonymous Symbol]                       0x08003e1c   Section        0  qep_hsm.o(.text.QHsm_tran_)
    [Anonymous Symbol]                       0x080040bc   Section        0  qf_mem.o(.text.QMPool_get)
    [Anonymous Symbol]                       0x080041b4   Section        0  qf_mem.o(.text.QMPool_init)
    [Anonymous Symbol]                       0x080042c8   Section        0  qf_mem.o(.text.QMPool_put)
    [Anonymous Symbol]                       0x08004344   Section        0  qf_time.o(.text.QTimeEvt_armX)
    [Anonymous Symbol]                       0x080043f8   Section        0  qf_time.o(.text.QTimeEvt_ctorX)
    [Anonymous Symbol]                       0x08004460   Section        0  qf_time.o(.text.QTimeEvt_disarm)
    [Anonymous Symbol]                       0x080044bc   Section        0  qf_time.o(.text.QTimeEvt_tick_)
    [Anonymous Symbol]                       0x08004600   Section        0  app.o(.text.Q_onError)
    [Anonymous Symbol]                       0x08004610   Section        0  stm32f4xx_it.o(.text.SVC_Handler)
    [Anonymous Symbol]                       0x08004614   Section        0  system_stm32f4xx.o(.text.SystemCoreClockUpdate)
    [Anonymous Symbol]                       0x08004744   Section        0  system_stm32f4xx.o(.text.SystemInit)
    [Anonymous Symbol]                       0x08004748   Section        0  tickerkeeper.o(.text.TickerKeeper_ctor)
    [Anonymous Symbol]                       0x0800478c   Section        0  tickerkeeper.o(.text.TickerKeeper_initial)
    [Anonymous Symbol]                       0x080047b0   Section        0  tickerkeeper.o(.text.TickerKeeper_paused)
    [Anonymous Symbol]                       0x080047f0   Section        0  tickerkeeper.o(.text.TickerKeeper_running)
    [Anonymous Symbol]                       0x08004884   Section        0  stm32f4xx_it.o(.text.UsageFault_Handler)
    [Anonymous Symbol]                       0x08004888   Section        0  bsp_system.o(.text.bsp_flash_init)
    [Anonymous Symbol]                       0x080048b0   Section        0  bsp_gpio.o(.text.bsp_gpio_PA7_reset)
    [Anonymous Symbol]                       0x080048c0   Section        0  bsp_gpio.o(.text.bsp_gpio_PA7_set)
    [Anonymous Symbol]                       0x080048d0   Section        0  bsp_gpio.o(.text.bsp_gpio_PB0_get_state)
    [Anonymous Symbol]                       0x080048e0   Section        0  bsp_gpio.o(.text.bsp_gpio_PB0_init)
    [Anonymous Symbol]                       0x08004914   Section        0  bsp_gpio.o(.text.bsp_gpio_PB10_init)
    [Anonymous Symbol]                       0x0800496c   Section        0  bsp_gpio.o(.text.bsp_gpio_PB10_reset)
    [Anonymous Symbol]                       0x08004980   Section        0  bsp_gpio.o(.text.bsp_gpio_PB10_set)
    [Anonymous Symbol]                       0x08004994   Section        0  bsp_gpio.o(.text.bsp_gpio_PB1_get_state)
    [Anonymous Symbol]                       0x080049a4   Section        0  bsp_gpio.o(.text.bsp_gpio_PB1_init)
    [Anonymous Symbol]                       0x080049d8   Section        0  bsp_gpio.o(.text.bsp_gpio_user_key_get_state)
    [Anonymous Symbol]                       0x080049e8   Section        0  bsp_gpio.o(.text.bsp_gpio_user_key_init)
    [Anonymous Symbol]                       0x08004a18   Section        0  bsp_i2c.o(.text.bsp_i2c_init)
    [Anonymous Symbol]                       0x08004bd0   Section        0  bsp_i2c.o(.text.bsp_i2c_master_receive)
    [Anonymous Symbol]                       0x08004ee8   Section        0  bsp_i2c.o(.text.bsp_i2c_master_receive_reg)
    [Anonymous Symbol]                       0x08005068   Section        0  bsp_i2c.o(.text.bsp_i2c_master_transfer)
    bsp_rcc_clock_init                       0x080051f5   Thumb Code   474  bsp_system.o(.text.bsp_rcc_clock_init)
    [Anonymous Symbol]                       0x080051f4   Section        0  bsp_system.o(.text.bsp_rcc_clock_init)
    [Anonymous Symbol]                       0x080053d0   Section        0  bsp_system.o(.text.bsp_system_init)
    bsp_systick_init                         0x080053e1   Thumb Code    90  bsp_system.o(.text.bsp_systick_init)
    [Anonymous Symbol]                       0x080053e0   Section        0  bsp_system.o(.text.bsp_systick_init)
    calculateHue                             0x0800543d   Thumb Code   352  central.o(.text.calculateHue)
    [Anonymous Symbol]                       0x0800543c   Section        0  central.o(.text.calculateHue)
    [Anonymous Symbol]                       0x0800559c   Section        0  main.o(.text.main)
    [Anonymous Symbol]                       0x08005618   Section        0  sdd1306.o(.text.sdd1306_clear_area)
    [Anonymous Symbol]                       0x0800567c   Section        0  sdd1306.o(.text.sdd1306_draw)
    [Anonymous Symbol]                       0x080056ec   Section        0  sdd1306.o(.text.sdd1306_init)
    task_function                            0x08005751   Thumb Code    40  qf_port.o(.text.task_function)
    [Anonymous Symbol]                       0x08005750   Section        0  qf_port.o(.text.task_function)
    [Anonymous Symbol]                       0x08005778   Section        0  veml6040.o(.text.veml6040_get_data_raw)
    [Anonymous Symbol]                       0x08005820   Section        0  veml6040.o(.text.veml6040_init)
    .L__const.sdd1306_init.initializeCmds    0x08005840   Data          26  sdd1306.o(.rodata..L__const.sdd1306_init.initializeCmds)
    QActive_ctor.vtable                      0x08005978   Data           8  qf_qact.o(.rodata.QActive_ctor.vtable)
    [Anonymous Symbol]                       0x08005978   Section        0  qf_qact.o(.rodata.QActive_ctor.vtable)
    QHsm_ctor.vtable                         0x08005990   Data           8  qep_hsm.o(.rodata.QHsm_ctor.vtable)
    [Anonymous Symbol]                       0x08005990   Section        0  qep_hsm.o(.rodata.QHsm_ctor.vtable)
    Q_this_module_                           0x08005998   Data          14  central.o(.rodata.Q_this_module_)
    [Anonymous Symbol]                       0x08005998   Section        0  central.o(.rodata.Q_this_module_)
    Q_this_module_                           0x080059a6   Data           8  qep_hsm.o(.rodata.Q_this_module_)
    [Anonymous Symbol]                       0x080059a6   Section        0  qep_hsm.o(.rodata.Q_this_module_)
    Q_this_module_                           0x080059ae   Data           7  qf_dyn.o(.rodata.Q_this_module_)
    [Anonymous Symbol]                       0x080059ae   Section        0  qf_dyn.o(.rodata.Q_this_module_)
    Q_this_module_                           0x080059b5   Data           7  qf_mem.o(.rodata.Q_this_module_)
    [Anonymous Symbol]                       0x080059b5   Section        0  qf_mem.o(.rodata.Q_this_module_)
    Q_this_module_                           0x080059bc   Data           8  qf_qact.o(.rodata.Q_this_module_)
    [Anonymous Symbol]                       0x080059bc   Section        0  qf_qact.o(.rodata.Q_this_module_)
    Q_this_module_                           0x080059c4   Data           8  qf_time.o(.rodata.Q_this_module_)
    [Anonymous Symbol]                       0x080059c4   Section        0  qf_time.o(.rodata.Q_this_module_)
    Q_this_module_                           0x080059cc   Data           8  qf_port.o(.rodata.Q_this_module_)
    [Anonymous Symbol]                       0x080059cc   Section        0  qf_port.o(.rodata.Q_this_module_)
    font16x16                                0x080059d4   Data         594  central.o(.rodata.font16x16)
    [Anonymous Symbol]                       0x080059d4   Section        0  central.o(.rodata.font16x16)
    .L.str                                   0x08005c26   Data           2  os_core.o(.rodata.str1.1)
    .L.str                                   0x08005c26   Data           2  os_core.o(.rodata.str1.1)
    .L.str                                   0x08005c26   Data           2  os_core.o(.rodata.str1.1)
    .L.str                                   0x08005c26   Data           2  os_core.o(.rodata.str1.1)
    .L.str                                   0x08005c26   Data           2  os_core.o(.rodata.str1.1)
    [Anonymous Symbol]                       0x08005c26   Section        0  os_core.o(.rodata.str1.1)
    .L.str.1                                 0x08005c28   Data          14  os_core.o(.rodata.str1.1)
    .L.str.2                                 0x08005c36   Data          14  os_core.o(.rodata.str1.1)
    zeros                                    0x20000004   Data        1025  sdd1306.o(.data.zeros)
    [Anonymous Symbol]                       0x20000004   Section        0  sdd1306.o(.data.zeros)
    .bss                                     0x20000408   Section       96  libspace.o(.bss)
    DebounceSwitch.State                     0x20000468   Data           2  main.o(.bss.DebounceSwitch.State)
    [Anonymous Symbol]                       0x20000468   Section        0  main.o(.bss.DebounceSwitch.State)
    DebounceSwitch2.State                    0x2000046a   Data           2  main.o(.bss.DebounceSwitch2.State)
    [Anonymous Symbol]                       0x2000046a   Section        0  main.o(.bss.DebounceSwitch2.State)
    DebounceSwitch3.State                    0x2000046c   Data           2  main.o(.bss.DebounceSwitch3.State)
    [Anonymous Symbol]                       0x2000046c   Section        0  main.o(.bss.DebounceSwitch3.State)
    l_central                                0x200018a8   Data          92  central.o(.bss.l_central)
    [Anonymous Symbol]                       0x200018a8   Section        0  central.o(.bss.l_central)
    main.centralStack                        0x20001904   Data        2048  main.o(.bss.main.centralStack)
    [Anonymous Symbol]                       0x20001904   Section        0  main.o(.bss.main.centralStack)
    main.central_queueSto                    0x20002104   Data         400  main.o(.bss.main.central_queueSto)
    [Anonymous Symbol]                       0x20002104   Section        0  main.o(.bss.main.central_queueSto)
    main.smlPoolSto                          0x20002294   Data         200  main.o(.bss.main.smlPoolSto)
    [Anonymous Symbol]                       0x20002294   Section        0  main.o(.bss.main.smlPoolSto)
    Heap_Mem                                 0x20002360   Data         512  startup_stm32f411xe.o(HEAP)
    HEAP                                     0x20002360   Section      512  startup_stm32f411xe.o(HEAP)
    Stack_Mem                                0x20002560   Data        1024  startup_stm32f411xe.o(STACK)
    STACK                                    0x20002560   Section     1024  startup_stm32f411xe.o(STACK)
    __initial_sp                             0x20002960   Data           0  startup_stm32f411xe.o(STACK)

    Global Symbols

    Symbol Name                              Value     Ov Type        Size  Object(Section)

    BuildAttributes$$THM_ISAv4$E$P$D$K$B$S$7EM$PE$A:L22UL41UL21$X:L11$S22US41US21$IEEE1$IW$~IW$USESV6$~STKCKD$USESV7$~SHL$OTIME$ROPI$EBA8$UX$STANDARDLIB$REQ8$PRES8$EABIv2 0x00000000   Number         0  anon$$obj.o ABSOLUTE
    __fp_init_empty                          0x00000000   Number         0  fpinit_empty.o ABSOLUTE
    __ARM_exceptions_init                     - Undefined Weak Reference
    __alloca_initialize                       - Undefined Weak Reference
    __arm_preinit_                            - Undefined Weak Reference
    __arm_relocate_pie_                       - Undefined Weak Reference
    __cpp_initialize__aeabi_                  - Undefined Weak Reference
    __cxa_finalize                            - Undefined Weak Reference
    __rt_locale                               - Undefined Weak Reference
    __sigvec_lookup                           - Undefined Weak Reference
    __user_heap_extent                        - Undefined Weak Reference
    _atexit_init                              - Undefined Weak Reference
    _call_atexit_fns                          - Undefined Weak Reference
    _clock_init                               - Undefined Weak Reference
    _fp_trap_init                             - Undefined Weak Reference
    _fp_trap_shutdown                         - Undefined Weak Reference
    _get_lc_collate                           - Undefined Weak Reference
    _get_lc_ctype                             - Undefined Weak Reference
    _get_lc_monetary                          - Undefined Weak Reference
    _get_lc_numeric                           - Undefined Weak Reference
    _get_lc_time                              - Undefined Weak Reference
    _getenv_init                              - Undefined Weak Reference
    _handle_redirection                       - Undefined Weak Reference
    _initio                                   - Undefined Weak Reference
    _mutex_acquire                            - Undefined Weak Reference
    _mutex_free                               - Undefined Weak Reference
    _mutex_release                            - Undefined Weak Reference
    _rand_init                                - Undefined Weak Reference
    _signal_finish                            - Undefined Weak Reference
    _signal_init                              - Undefined Weak Reference
    _terminateio                              - Undefined Weak Reference
    __Vectors_Size                           0x00000198   Number         0  startup_stm32f411xe.o ABSOLUTE
    __Vectors                                0x08000000   Data           4  startup_stm32f411xe.o(RESET)
    __Vectors_End                            0x08000198   Data           0  startup_stm32f411xe.o(RESET)
    __main                                   0x08000199   Thumb Code     8  __main.o(!!!main)
    __scatterload                            0x080001a1   Thumb Code     0  __scatter.o(!!!scatter)
    __scatterload_rt2                        0x080001a1   Thumb Code    44  __scatter.o(!!!scatter)
    __scatterload_rt2_thumb_only             0x080001a1   Thumb Code     0  __scatter.o(!!!scatter)
    __scatterload_null                       0x080001af   Thumb Code     0  __scatter.o(!!!scatter)
    __decompress                             0x080001d5   Thumb Code    58  __dczerorl.o(!!dczerorl)
    __decompress0                            0x080001d5   Thumb Code     0  __dczerorl.o(!!dczerorl)
    __scatterload_zeroinit                   0x08000211   Thumb Code    28  __scatter_zi.o(!!handler_zi)
    __rt_lib_init                            0x0800022d   Thumb Code     0  libinit.o(.ARM.Collect$$libinit$$00000000)
    __rt_lib_init_alloca_1                   0x0800022f   Thumb Code     0  libinit2.o(.ARM.Collect$$libinit$$00000030)
    __rt_lib_init_argv_1                     0x0800022f   Thumb Code     0  libinit2.o(.ARM.Collect$$libinit$$0000002E)
    __rt_lib_init_atexit_1                   0x0800022f   Thumb Code     0  libinit2.o(.ARM.Collect$$libinit$$0000001D)
    __rt_lib_init_clock_1                    0x0800022f   Thumb Code     0  libinit2.o(.ARM.Collect$$libinit$$00000023)
    __rt_lib_init_cpp_1                      0x0800022f   Thumb Code     0  libinit2.o(.ARM.Collect$$libinit$$00000034)
    __rt_lib_init_exceptions_1               0x0800022f   Thumb Code     0  libinit2.o(.ARM.Collect$$libinit$$00000032)
    __rt_lib_init_fp_1                       0x0800022f   Thumb Code     0  libinit2.o(.ARM.Collect$$libinit$$00000002)
    __rt_lib_init_fp_trap_1                  0x0800022f   Thumb Code     0  libinit2.o(.ARM.Collect$$libinit$$00000021)
    __rt_lib_init_getenv_1                   0x0800022f   Thumb Code     0  libinit2.o(.ARM.Collect$$libinit$$00000025)
    __rt_lib_init_heap_1                     0x0800022f   Thumb Code     0  libinit2.o(.ARM.Collect$$libinit$$0000000C)
    __rt_lib_init_lc_collate_1               0x0800022f   Thumb Code     0  libinit2.o(.ARM.Collect$$libinit$$00000013)
    __rt_lib_init_lc_ctype_1                 0x0800022f   Thumb Code     0  libinit2.o(.ARM.Collect$$libinit$$00000015)
    __rt_lib_init_lc_monetary_1              0x0800022f   Thumb Code     0  libinit2.o(.ARM.Collect$$libinit$$00000017)
    __rt_lib_init_lc_numeric_1               0x0800022f   Thumb Code     0  libinit2.o(.ARM.Collect$$libinit$$00000019)
    __rt_lib_init_lc_time_1                  0x0800022f   Thumb Code     0  libinit2.o(.ARM.Collect$$libinit$$0000001B)
    __rt_lib_init_preinit_1                  0x0800022f   Thumb Code     0  libinit2.o(.ARM.Collect$$libinit$$00000006)
    __rt_lib_init_rand_1                     0x0800022f   Thumb Code     0  libinit2.o(.ARM.Collect$$libinit$$00000010)
    __rt_lib_init_relocate_pie_1             0x0800022f   Thumb Code     0  libinit2.o(.ARM.Collect$$libinit$$00000004)
    __rt_lib_init_return                     0x0800022f   Thumb Code     0  libinit2.o(.ARM.Collect$$libinit$$00000035)
    __rt_lib_init_signal_1                   0x0800022f   Thumb Code     0  libinit2.o(.ARM.Collect$$libinit$$0000001F)
    __rt_lib_init_stdio_1                    0x0800022f   Thumb Code     0  libinit2.o(.ARM.Collect$$libinit$$00000027)
    __rt_lib_init_user_alloc_1               0x0800022f   Thumb Code     0  libinit2.o(.ARM.Collect$$libinit$$0000000E)
    __rt_lib_shutdown                        0x08000231   Thumb Code     0  libshutdown.o(.ARM.Collect$$libshutdown$$00000000)
    __rt_lib_shutdown_cpp_1                  0x08000233   Thumb Code     0  libshutdown2.o(.ARM.Collect$$libshutdown$$00000002)
    __rt_lib_shutdown_fp_trap_1              0x08000233   Thumb Code     0  libshutdown2.o(.ARM.Collect$$libshutdown$$00000007)
    __rt_lib_shutdown_heap_1                 0x08000233   Thumb Code     0  libshutdown2.o(.ARM.Collect$$libshutdown$$0000000F)
    __rt_lib_shutdown_return                 0x08000233   Thumb Code     0  libshutdown2.o(.ARM.Collect$$libshutdown$$00000010)
    __rt_lib_shutdown_signal_1               0x08000233   Thumb Code     0  libshutdown2.o(.ARM.Collect$$libshutdown$$0000000A)
    __rt_lib_shutdown_stdio_1                0x08000233   Thumb Code     0  libshutdown2.o(.ARM.Collect$$libshutdown$$00000004)
    __rt_lib_shutdown_user_alloc_1           0x08000233   Thumb Code     0  libshutdown2.o(.ARM.Collect$$libshutdown$$0000000C)
    __rt_entry                               0x08000235   Thumb Code     0  __rtentry.o(.ARM.Collect$$rtentry$$00000000)
    __rt_entry_presh_1                       0x08000235   Thumb Code     0  __rtentry2.o(.ARM.Collect$$rtentry$$00000002)
    __rt_entry_sh                            0x08000235   Thumb Code     0  __rtentry4.o(.ARM.Collect$$rtentry$$00000004)
    __rt_entry_li                            0x0800023b   Thumb Code     0  __rtentry2.o(.ARM.Collect$$rtentry$$0000000A)
    __rt_entry_postsh_1                      0x0800023b   Thumb Code     0  __rtentry2.o(.ARM.Collect$$rtentry$$00000009)
    __rt_entry_main                          0x0800023f   Thumb Code     0  __rtentry2.o(.ARM.Collect$$rtentry$$0000000D)
    __rt_entry_postli_1                      0x0800023f   Thumb Code     0  __rtentry2.o(.ARM.Collect$$rtentry$$0000000C)
    __rt_exit                                0x08000247   Thumb Code     0  rtexit.o(.ARM.Collect$$rtexit$$00000000)
    __rt_exit_ls                             0x08000249   Thumb Code     0  rtexit2.o(.ARM.Collect$$rtexit$$00000003)
    __rt_exit_prels_1                        0x08000249   Thumb Code     0  rtexit2.o(.ARM.Collect$$rtexit$$00000002)
    __rt_exit_exit                           0x0800024d   Thumb Code     0  rtexit2.o(.ARM.Collect$$rtexit$$00000004)
    OS_CPU_SR_Save                           0x08000255   Thumb Code     0  os_cpu_a.o(.text)
    OS_CPU_SR_Restore                        0x08000271   Thumb Code     0  os_cpu_a.o(.text)
    OSStartHighRdy                           0x08000283   Thumb Code     0  os_cpu_a.o(.text)
    OSCtxSw                                  0x080002db   Thumb Code     0  os_cpu_a.o(.text)
    OSIntCtxSw                               0x080002db   Thumb Code     0  os_cpu_a.o(.text)
    OS_CPU_PendSVHandler                     0x080002e5   Thumb Code     0  os_cpu_a.o(.text)
    Reset_Handler                            0x08000369   Thumb Code     8  startup_stm32f411xe.o(.text)
    ADC_IRQHandler                           0x08000383   Thumb Code     0  startup_stm32f411xe.o(.text)
    DMA1_Stream0_IRQHandler                  0x08000383   Thumb Code     0  startup_stm32f411xe.o(.text)
    DMA1_Stream1_IRQHandler                  0x08000383   Thumb Code     0  startup_stm32f411xe.o(.text)
    DMA1_Stream2_IRQHandler                  0x08000383   Thumb Code     0  startup_stm32f411xe.o(.text)
    DMA1_Stream3_IRQHandler                  0x08000383   Thumb Code     0  startup_stm32f411xe.o(.text)
    DMA1_Stream4_IRQHandler                  0x08000383   Thumb Code     0  startup_stm32f411xe.o(.text)
    DMA1_Stream5_IRQHandler                  0x08000383   Thumb Code     0  startup_stm32f411xe.o(.text)
    DMA1_Stream6_IRQHandler                  0x08000383   Thumb Code     0  startup_stm32f411xe.o(.text)
    DMA1_Stream7_IRQHandler                  0x08000383   Thumb Code     0  startup_stm32f411xe.o(.text)
    DMA2_Stream0_IRQHandler                  0x08000383   Thumb Code     0  startup_stm32f411xe.o(.text)
    DMA2_Stream1_IRQHandler                  0x08000383   Thumb Code     0  startup_stm32f411xe.o(.text)
    DMA2_Stream4_IRQHandler                  0x08000383   Thumb Code     0  startup_stm32f411xe.o(.text)
    DMA2_Stream5_IRQHandler                  0x08000383   Thumb Code     0  startup_stm32f411xe.o(.text)
    DMA2_Stream6_IRQHandler                  0x08000383   Thumb Code     0  startup_stm32f411xe.o(.text)
    DMA2_Stream7_IRQHandler                  0x08000383   Thumb Code     0  startup_stm32f411xe.o(.text)
    EXTI1_IRQHandler                         0x08000383   Thumb Code     0  startup_stm32f411xe.o(.text)
    EXTI2_IRQHandler                         0x08000383   Thumb Code     0  startup_stm32f411xe.o(.text)
    EXTI3_IRQHandler                         0x08000383   Thumb Code     0  startup_stm32f411xe.o(.text)
    EXTI4_IRQHandler                         0x08000383   Thumb Code     0  startup_stm32f411xe.o(.text)
    EXTI9_5_IRQHandler                       0x08000383   Thumb Code     0  startup_stm32f411xe.o(.text)
    FLASH_IRQHandler                         0x08000383   Thumb Code     0  startup_stm32f411xe.o(.text)
    FPU_IRQHandler                           0x08000383   Thumb Code     0  startup_stm32f411xe.o(.text)
    I2C1_ER_IRQHandler                       0x08000383   Thumb Code     0  startup_stm32f411xe.o(.text)
    I2C1_EV_IRQHandler                       0x08000383   Thumb Code     0  startup_stm32f411xe.o(.text)
    I2C2_ER_IRQHandler                       0x08000383   Thumb Code     0  startup_stm32f411xe.o(.text)
    I2C2_EV_IRQHandler                       0x08000383   Thumb Code     0  startup_stm32f411xe.o(.text)
    I2C3_ER_IRQHandler                       0x08000383   Thumb Code     0  startup_stm32f411xe.o(.text)
    I2C3_EV_IRQHandler                       0x08000383   Thumb Code     0  startup_stm32f411xe.o(.text)
    OTG_FS_WKUP_IRQHandler                   0x08000383   Thumb Code     0  startup_stm32f411xe.o(.text)
    PVD_IRQHandler                           0x08000383   Thumb Code     0  startup_stm32f411xe.o(.text)
    RCC_IRQHandler                           0x08000383   Thumb Code     0  startup_stm32f411xe.o(.text)
    RTC_Alarm_IRQHandler                     0x08000383   Thumb Code     0  startup_stm32f411xe.o(.text)
    RTC_WKUP_IRQHandler                      0x08000383   Thumb Code     0  startup_stm32f411xe.o(.text)
    SDIO_IRQHandler                          0x08000383   Thumb Code     0  startup_stm32f411xe.o(.text)
    SPI1_IRQHandler                          0x08000383   Thumb Code     0  startup_stm32f411xe.o(.text)
    SPI2_IRQHandler                          0x08000383   Thumb Code     0  startup_stm32f411xe.o(.text)
    SPI3_IRQHandler                          0x08000383   Thumb Code     0  startup_stm32f411xe.o(.text)
    SPI4_IRQHandler                          0x08000383   Thumb Code     0  startup_stm32f411xe.o(.text)
    SPI5_IRQHandler                          0x08000383   Thumb Code     0  startup_stm32f411xe.o(.text)
    TAMP_STAMP_IRQHandler                    0x08000383   Thumb Code     0  startup_stm32f411xe.o(.text)
    TIM1_BRK_TIM9_IRQHandler                 0x08000383   Thumb Code     0  startup_stm32f411xe.o(.text)
    TIM1_CC_IRQHandler                       0x08000383   Thumb Code     0  startup_stm32f411xe.o(.text)
    TIM1_TRG_COM_TIM11_IRQHandler            0x08000383   Thumb Code     0  startup_stm32f411xe.o(.text)
    TIM1_UP_TIM10_IRQHandler                 0x08000383   Thumb Code     0  startup_stm32f411xe.o(.text)
    TIM2_IRQHandler                          0x08000383   Thumb Code     0  startup_stm32f411xe.o(.text)
    TIM3_IRQHandler                          0x08000383   Thumb Code     0  startup_stm32f411xe.o(.text)
    TIM4_IRQHandler                          0x08000383   Thumb Code     0  startup_stm32f411xe.o(.text)
    TIM5_IRQHandler                          0x08000383   Thumb Code     0  startup_stm32f411xe.o(.text)
    USART1_IRQHandler                        0x08000383   Thumb Code     0  startup_stm32f411xe.o(.text)
    USART2_IRQHandler                        0x08000383   Thumb Code     0  startup_stm32f411xe.o(.text)
    USART6_IRQHandler                        0x08000383   Thumb Code     0  startup_stm32f411xe.o(.text)
    WWDG_IRQHandler                          0x08000383   Thumb Code     0  startup_stm32f411xe.o(.text)
    __user_initial_stackheap                 0x08000385   Thumb Code     0  startup_stm32f411xe.o(.text)
    exit                                     0x080003a9   Thumb Code    18  exit.o(.text)
    __aeabi_memcpy                           0x080003bb   Thumb Code     0  rt_memcpy_v6.o(.text)
    __rt_memcpy                              0x080003bb   Thumb Code   138  rt_memcpy_v6.o(.text)
    _memcpy_lastbytes                        0x08000421   Thumb Code     0  rt_memcpy_v6.o(.text)
    __use_two_region_memory                  0x08000445   Thumb Code     2  heapauxi.o(.text)
    __rt_heap_escrow                         0x08000447   Thumb Code     2  heapauxi.o(.text)
    __rt_heap_expand                         0x08000449   Thumb Code     2  heapauxi.o(.text)
    __aeabi_memcpy4                          0x0800044b   Thumb Code     0  rt_memcpy_w.o(.text)
    __aeabi_memcpy8                          0x0800044b   Thumb Code     0  rt_memcpy_w.o(.text)
    __rt_memcpy_w                            0x0800044b   Thumb Code   100  rt_memcpy_w.o(.text)
    _memcpy_lastbytes_aligned                0x08000493   Thumb Code     0  rt_memcpy_w.o(.text)
    __user_libspace                          0x080004b1   Thumb Code     8  libspace.o(.text)
    __user_perproc_libspace                  0x080004b1   Thumb Code     0  libspace.o(.text)
    __user_perthread_libspace                0x080004b1   Thumb Code     0  libspace.o(.text)
    _sys_exit                                0x080004b9   Thumb Code     8  sys_exit.o(.text)
    __I$use$semihosting                      0x080004c5   Thumb Code     0  use_no_semi.o(.text)
    __use_no_semihosting_swi                 0x080004c5   Thumb Code     2  use_no_semi.o(.text)
    __semihosting_library_function           0x080004c7   Thumb Code     0  indicate_semi.o(.text)
    __user_setup_stackheap                   0x080004c7   Thumb Code    74  sys_stackheap_outer.o(.text)
    App_TCBInitHook                          0x08000511   Thumb Code     8  app_hooks.o(.text.App_TCBInitHook)
    App_TaskCreateHook                       0x08000519   Thumb Code     8  app_hooks.o(.text.App_TaskCreateHook)
    App_TaskDelHook                          0x08000521   Thumb Code     8  app_hooks.o(.text.App_TaskDelHook)
    App_TaskIdleHook                         0x08000529   Thumb Code     2  app_hooks.o(.text.App_TaskIdleHook)
    App_TaskReturnHook                       0x0800052d   Thumb Code     8  app_hooks.o(.text.App_TaskReturnHook)
    App_TaskStatHook                         0x08000535   Thumb Code     2  app_hooks.o(.text.App_TaskStatHook)
    App_TaskSwHook                           0x08000539   Thumb Code     2  app_hooks.o(.text.App_TaskSwHook)
    App_TimeTickHook                         0x0800053d   Thumb Code   154  main.o(.text.App_TimeTickHook)
    BusFault_Handler                         0x080005d9   Thumb Code     4  stm32f4xx_it.o(.text.BusFault_Handler)
    Central_ctor                             0x080005dd   Thumb Code    40  central.o(.text.Central_ctor)
    Central_initial                          0x08000605   Thumb Code   142  central.o(.text.Central_initial)
    Central_percentdata                      0x08000695   Thumb Code  1174  central.o(.text.Central_percentdata)
    Central_rawdata                          0x08000b2d   Thumb Code  1504  central.o(.text.Central_rawdata)
    Central_started                          0x0800110d   Thumb Code   344  central.o(.text.Central_started)
    DMA2_Stream2_IRQHandler                  0x08001265   Thumb Code   250  bsp_spi.o(.text.DMA2_Stream2_IRQHandler)
    DMA2_Stream3_IRQHandler                  0x08001361   Thumb Code   384  bsp_spi.o(.text.DMA2_Stream3_IRQHandler)
    DebounceSwitch                           0x080014e1   Thumb Code    78  main.o(.text.DebounceSwitch)
    DebounceSwitch2                          0x08001531   Thumb Code    78  main.o(.text.DebounceSwitch2)
    DebounceSwitch3                          0x08001581   Thumb Code    78  main.o(.text.DebounceSwitch3)
    DebugMon_Handler                         0x080015d1   Thumb Code     2  stm32f4xx_it.o(.text.DebugMon_Handler)
    EXTI0_IRQHandler                         0x080015d5   Thumb Code     2  stm32f4xx_it.o(.text.EXTI0_IRQHandler)
    EXTI15_10_IRQHandler                     0x080015d9   Thumb Code     2  stm32f4xx_it.o(.text.EXTI15_10_IRQHandler)
    HardFault_Handler                        0x080015dd   Thumb Code     4  stm32f4xx_it.o(.text.HardFault_Handler)
    MemManage_Handler                        0x080015e1   Thumb Code     4  stm32f4xx_it.o(.text.MemManage_Handler)
    NMI_Handler                              0x080015e5   Thumb Code     4  stm32f4xx_it.o(.text.NMI_Handler)
    OSInit                                   0x080015e9   Thumb Code    48  os_core.o(.text.OSInit)
    OSInitHookBegin                          0x08001619   Thumb Code    90  os_cpu_c.o(.text.OSInitHookBegin)
    OSInitHookEnd                            0x08001675   Thumb Code     2  os_cpu_c.o(.text.OSInitHookEnd)
    OSIntEnter                               0x08001679   Thumb Code    52  os_core.o(.text.OSIntEnter)
    OSIntExit                                0x080016ad   Thumb Code   210  os_core.o(.text.OSIntExit)
    OSQCreate                                0x08001781   Thumb Code   282  os_q.o(.text.OSQCreate)
    OSQPend                                  0x0800189d   Thumb Code   424  os_q.o(.text.OSQPend)
    OSQPost                                  0x08001a45   Thumb Code   200  os_q.o(.text.OSQPost)
    OSStart                                  0x08001b0d   Thumb Code    84  os_core.o(.text.OSStart)
    OSTCBInitHook                            0x08001b61   Thumb Code    16  os_cpu_c.o(.text.OSTCBInitHook)
    OSTaskCreateExt                          0x08001b71   Thumb Code   338  os_task.o(.text.OSTaskCreateExt)
    OSTaskCreateHook                         0x08001cc5   Thumb Code    16  os_cpu_c.o(.text.OSTaskCreateHook)
    OSTaskDel                                0x08001cd5   Thumb Code   578  os_task.o(.text.OSTaskDel)
    OSTaskDelHook                            0x08001f19   Thumb Code    16  os_cpu_c.o(.text.OSTaskDelHook)
    OSTaskIdleHook                           0x08001f29   Thumb Code     8  os_cpu_c.o(.text.OSTaskIdleHook)
    OSTaskNameSet                            0x08001f31   Thumb Code   220  os_task.o(.text.OSTaskNameSet)
    OSTaskReturnHook                         0x0800200d   Thumb Code    16  os_cpu_c.o(.text.OSTaskReturnHook)
    OSTaskStatHook                           0x0800201d   Thumb Code     8  os_cpu_c.o(.text.OSTaskStatHook)
    OSTaskStkChk                             0x08002025   Thumb Code   286  os_task.o(.text.OSTaskStkChk)
    OSTaskStkInit                            0x08002145   Thumb Code   270  os_cpu_c.o(.text.OSTaskStkInit)
    OSTaskSuspend                            0x08002255   Thumb Code   340  os_task.o(.text.OSTaskSuspend)
    OSTaskSwHook                             0x080023a9   Thumb Code     8  os_cpu_c.o(.text.OSTaskSwHook)
    OSTimeDly                                0x080023b1   Thumb Code   178  os_time.o(.text.OSTimeDly)
    OSTimeTick                               0x08002465   Thumb Code   364  os_core.o(.text.OSTimeTick)
    OSTimeTickHook                           0x080025d1   Thumb Code     8  os_cpu_c.o(.text.OSTimeTickHook)
    OS_CPU_SysTickHandler                    0x080025d9   Thumb Code    42  os_cpu_c.o(.text.OS_CPU_SysTickHandler)
    OS_Dummy                                 0x08002605   Thumb Code     2  os_core.o(.text.OS_Dummy)
    OS_EventTaskRdy                          0x08002609   Thumb Code   228  os_core.o(.text.OS_EventTaskRdy)
    OS_EventTaskRemove                       0x080026ed   Thumb Code    76  os_core.o(.text.OS_EventTaskRemove)
    OS_EventTaskRemoveMulti                  0x08002739   Thumb Code   118  os_core.o(.text.OS_EventTaskRemoveMulti)
    OS_EventTaskWait                         0x080027b1   Thumb Code   130  os_core.o(.text.OS_EventTaskWait)
    OS_EventWaitListInit                     0x08002835   Thumb Code    56  os_core.o(.text.OS_EventWaitListInit)
    OS_FlagInit                              0x0800286d   Thumb Code   166  os_flag.o(.text.OS_FlagInit)
    OS_FlagUnlink                            0x08002915   Thumb Code    88  os_flag.o(.text.OS_FlagUnlink)
    OS_MemClr                                0x08002c55   Thumb Code    44  os_core.o(.text.OS_MemClr)
    OS_MemInit                               0x08002c81   Thumb Code   156  os_mem.o(.text.OS_MemInit)
    OS_QInit                                 0x08002d1d   Thumb Code   144  os_q.o(.text.OS_QInit)
    OS_Sched                                 0x08002dad   Thumb Code   156  os_core.o(.text.OS_Sched)
    OS_TCBInit                               0x08002e85   Thumb Code   538  os_core.o(.text.OS_TCBInit)
    OS_TaskIdle                              0x080030a1   Thumb Code    54  os_core.o(.text.OS_TaskIdle)
    OS_TaskReturn                            0x080030d9   Thumb Code    24  os_task.o(.text.OS_TaskReturn)
    OS_TaskStat                              0x080030f1   Thumb Code   338  os_core.o(.text.OS_TaskStat)
    OS_TaskStatStkChk                        0x08003245   Thumb Code   118  os_core.o(.text.OS_TaskStatStkChk)
    OS_TaskStkClr                            0x080032bd   Thumb Code    66  os_task.o(.text.OS_TaskStkClr)
    OTG_FS_IRQHandler                        0x08003301   Thumb Code     2  stm32f4xx_it.o(.text.OTG_FS_IRQHandler)
    QActive_ctor                             0x08003305   Thumb Code    40  qf_qact.o(.text.QActive_ctor)
    QActive_get_                             0x0800332d   Thumb Code    76  qf_port.o(.text.QActive_get_)
    QActive_post_                            0x08003379   Thumb Code   242  qf_port.o(.text.QActive_post_)
    QActive_register_                        0x0800346d   Thumb Code   324  qf_qact.o(.text.QActive_register_)
    QActive_start_                           0x080035b1   Thumb Code   252  qf_port.o(.text.QActive_start_)
    QF_bzero_                                0x0800376d   Thumb Code    48  qf_act.o(.text.QF_bzero_)
    QF_gc                                    0x0800379d   Thumb Code   190  qf_dyn.o(.text.QF_gc)
    QF_init                                  0x0800385d   Thumb Code     8  qf_port.o(.text.QF_init)
    QF_newX_                                 0x08003865   Thumb Code   286  qf_dyn.o(.text.QF_newX_)
    QF_onStartup                             0x08003985   Thumb Code     2  app.o(.text.QF_onStartup)
    QF_poolInit                              0x08003989   Thumb Code   168  qf_dyn.o(.text.QF_poolInit)
    QF_run                                   0x08003a31   Thumb Code    14  qf_port.o(.text.QF_run)
    QHsm_ctor                                0x08003a41   Thumb Code    40  qep_hsm.o(.text.QHsm_ctor)
    QHsm_dispatch_                           0x08003a69   Thumb Code   560  qep_hsm.o(.text.QHsm_dispatch_)
    QHsm_init_                               0x08003c99   Thumb Code   376  qep_hsm.o(.text.QHsm_init_)
    QHsm_top                                 0x08003e11   Thumb Code    12  qep_hsm.o(.text.QHsm_top)
    QHsm_tran_                               0x08003e1d   Thumb Code   672  qep_hsm.o(.text.QHsm_tran_)
    QMPool_get                               0x080040bd   Thumb Code   248  qf_mem.o(.text.QMPool_get)
    QMPool_init                              0x080041b5   Thumb Code   276  qf_mem.o(.text.QMPool_init)
    QMPool_put                               0x080042c9   Thumb Code   124  qf_mem.o(.text.QMPool_put)
    QTimeEvt_armX                            0x08004345   Thumb Code   180  qf_time.o(.text.QTimeEvt_armX)
    QTimeEvt_ctorX                           0x080043f9   Thumb Code   102  qf_time.o(.text.QTimeEvt_ctorX)
    QTimeEvt_disarm                          0x08004461   Thumb Code    90  qf_time.o(.text.QTimeEvt_disarm)
    QTimeEvt_tick_                           0x080044bd   Thumb Code   322  qf_time.o(.text.QTimeEvt_tick_)
    Q_onError                                0x08004601   Thumb Code    14  app.o(.text.Q_onError)
    SVC_Handler                              0x08004611   Thumb Code     2  stm32f4xx_it.o(.text.SVC_Handler)
    SystemCoreClockUpdate                    0x08004615   Thumb Code   302  system_stm32f4xx.o(.text.SystemCoreClockUpdate)
    SystemInit                               0x08004745   Thumb Code     2  system_stm32f4xx.o(.text.SystemInit)
    TickerKeeper_ctor                        0x08004749   Thumb Code    66  tickerkeeper.o(.text.TickerKeeper_ctor)
    TickerKeeper_initial                     0x0800478d   Thumb Code    36  tickerkeeper.o(.text.TickerKeeper_initial)
    TickerKeeper_paused                      0x080047b1   Thumb Code    64  tickerkeeper.o(.text.TickerKeeper_paused)
    TickerKeeper_running                     0x080047f1   Thumb Code   146  tickerkeeper.o(.text.TickerKeeper_running)
    UsageFault_Handler                       0x08004885   Thumb Code     4  stm32f4xx_it.o(.text.UsageFault_Handler)
    bsp_flash_init                           0x08004889   Thumb Code    38  bsp_system.o(.text.bsp_flash_init)
    bsp_gpio_PA7_reset                       0x080048b1   Thumb Code    16  bsp_gpio.o(.text.bsp_gpio_PA7_reset)
    bsp_gpio_PA7_set                         0x080048c1   Thumb Code    16  bsp_gpio.o(.text.bsp_gpio_PA7_set)
    bsp_gpio_PB0_get_state                   0x080048d1   Thumb Code    16  bsp_gpio.o(.text.bsp_gpio_PB0_get_state)
    bsp_gpio_PB0_init                        0x080048e1   Thumb Code    52  bsp_gpio.o(.text.bsp_gpio_PB0_init)
    bsp_gpio_PB10_init                       0x08004915   Thumb Code    86  bsp_gpio.o(.text.bsp_gpio_PB10_init)
    bsp_gpio_PB10_reset                      0x0800496d   Thumb Code    18  bsp_gpio.o(.text.bsp_gpio_PB10_reset)
    bsp_gpio_PB10_set                        0x08004981   Thumb Code    18  bsp_gpio.o(.text.bsp_gpio_PB10_set)
    bsp_gpio_PB1_get_state                   0x08004995   Thumb Code    16  bsp_gpio.o(.text.bsp_gpio_PB1_get_state)
    bsp_gpio_PB1_init                        0x080049a5   Thumb Code    52  bsp_gpio.o(.text.bsp_gpio_PB1_init)
    bsp_gpio_user_key_get_state              0x080049d9   Thumb Code    14  bsp_gpio.o(.text.bsp_gpio_user_key_get_state)
    bsp_gpio_user_key_init                   0x080049e9   Thumb Code    48  bsp_gpio.o(.text.bsp_gpio_user_key_init)
    bsp_i2c_init                             0x08004a19   Thumb Code   440  bsp_i2c.o(.text.bsp_i2c_init)
    bsp_i2c_master_receive                   0x08004bd1   Thumb Code   792  bsp_i2c.o(.text.bsp_i2c_master_receive)
    bsp_i2c_master_receive_reg               0x08004ee9   Thumb Code   384  bsp_i2c.o(.text.bsp_i2c_master_receive_reg)
    bsp_i2c_master_transfer                  0x08005069   Thumb Code   396  bsp_i2c.o(.text.bsp_i2c_master_transfer)
    bsp_system_init                          0x080053d1   Thumb Code    16  bsp_system.o(.text.bsp_system_init)
    main                                     0x0800559d   Thumb Code   122  main.o(.text.main)
    sdd1306_clear_area                       0x08005619   Thumb Code   100  sdd1306.o(.text.sdd1306_clear_area)
    sdd1306_draw                             0x0800567d   Thumb Code   112  sdd1306.o(.text.sdd1306_draw)
    sdd1306_init                             0x080056ed   Thumb Code   100  sdd1306.o(.text.sdd1306_init)
    veml6040_get_data_raw                    0x08005779   Thumb Code   166  veml6040.o(.text.veml6040_get_data_raw)
    veml6040_init                            0x08005821   Thumb Code    32  veml6040.o(.text.veml6040_init)
    AHBPrescTable                            0x0800585a   Data          16  system_stm32f4xx.o(.rodata.AHBPrescTable)
    AO_Central                               0x0800586c   Data           4  central.o(.rodata.AO_Central)
    APBPrescTable                            0x08005870   Data           8  system_stm32f4xx.o(.rodata.APBPrescTable)
    OSUnMapTbl                               0x08005878   Data         256  os_core.o(.rodata.OSUnMapTbl)
    QEvt_reserved_                           0x08005980   Data          16  qep_hsm.o(.rodata.QEvt_reserved_)
    Region$$Table$$Base                      0x08005c44   Number         0  anon$$obj.o(Region$$Table)
    Region$$Table$$Limit                     0x08005c64   Number         0  anon$$obj.o(Region$$Table)
    SystemCoreClock                          0x20000000   Data           4  system_stm32f4xx.o(.data.SystemCoreClock)
    __libspace_start                         0x20000408   Data          96  libspace.o(.bss)
    __temporary_stack_top$libspace           0x20000468   Data           0  libspace.o(.bss)
    OSCPUUsage                               0x2000046e   Data           1  os_core.o(.bss.OSCPUUsage)
    OSCtxSwCtr                               0x20000470   Data           4  os_core.o(.bss.OSCtxSwCtr)
    OSEventFreeList                          0x20000474   Data           4  os_core.o(.bss.OSEventFreeList)
    OSEventTbl                               0x20000478   Data         240  os_core.o(.bss.OSEventTbl)
    OSFlagFreeList                           0x20000568   Data           4  os_core.o(.bss.OSFlagFreeList)
    OSFlagTbl                                0x2000056c   Data          80  os_core.o(.bss.OSFlagTbl)
    OSIdleCtr                                0x200005bc   Data           4  os_core.o(.bss.OSIdleCtr)
    OSIdleCtrMax                             0x200005c0   Data           4  os_core.o(.bss.OSIdleCtrMax)
    OSIdleCtrRun                             0x200005c4   Data           4  os_core.o(.bss.OSIdleCtrRun)
    OSIntNesting                             0x200005c8   Data           1  os_core.o(.bss.OSIntNesting)
    OSLockNesting                            0x200005c9   Data           1  os_core.o(.bss.OSLockNesting)
    OSMemFreeList                            0x200005cc   Data           4  os_core.o(.bss.OSMemFreeList)
    OSMemTbl                                 0x200005d0   Data         120  os_core.o(.bss.OSMemTbl)
    OSPrioCur                                0x20000648   Data           1  os_core.o(.bss.OSPrioCur)
    OSPrioHighRdy                            0x20000649   Data           1  os_core.o(.bss.OSPrioHighRdy)
    OSQFreeList                              0x2000064c   Data           4  os_core.o(.bss.OSQFreeList)
    OSQTbl                                   0x20000650   Data          96  os_core.o(.bss.OSQTbl)
    OSRdyGrp                                 0x200006b0   Data           1  os_core.o(.bss.OSRdyGrp)
    OSRdyTbl                                 0x200006b1   Data           8  os_core.o(.bss.OSRdyTbl)
    OSRunning                                0x200006b9   Data           1  os_core.o(.bss.OSRunning)
    OSStatRdy                                0x200006ba   Data           1  os_core.o(.bss.OSStatRdy)
    OSTCBCur                                 0x200006bc   Data           4  os_core.o(.bss.OSTCBCur)
    OSTCBFreeList                            0x200006c0   Data           4  os_core.o(.bss.OSTCBFreeList)
    OSTCBHighRdy                             0x200006c4   Data           4  os_core.o(.bss.OSTCBHighRdy)
    OSTCBList                                0x200006c8   Data           4  os_core.o(.bss.OSTCBList)
    OSTCBPrioTbl                             0x200006cc   Data         256  os_core.o(.bss.OSTCBPrioTbl)
    OSTCBTbl                                 0x200007cc   Data        2024  os_core.o(.bss.OSTCBTbl)
    OSTaskCtr                                0x20000fb4   Data           1  os_core.o(.bss.OSTaskCtr)
    OSTaskIdleStk                            0x20000fb8   Data         512  os_core.o(.bss.OSTaskIdleStk)
    OSTaskRegNextAvailID                     0x200011b8   Data           1  os_core.o(.bss.OSTaskRegNextAvailID)
    OSTaskStatStk                            0x200011bc   Data         512  os_core.o(.bss.OSTaskStatStk)
    OSTickStepState                          0x200013bc   Data           1  os_core.o(.bss.OSTickStepState)
    OSTime                                   0x200013c0   Data           4  os_core.o(.bss.OSTime)
    OS_CPU_ExceptStk                         0x200013c4   Data        1024  os_cpu_c.o(.bss.OS_CPU_ExceptStk)
    OS_CPU_ExceptStkBase                     0x200017c4   Data           4  os_cpu_c.o(.bss.OS_CPU_ExceptStkBase)
    OS_KA_BASEPRI_Boundary                   0x200017c8   Data           4  os_cpu_c.o(.bss.OS_KA_BASEPRI_Boundary)
    QActive_registry_                        0x200017cc   Data         132  qf_act.o(.bss.QActive_registry_)
    QF_priv_                                 0x20001850   Data          64  qf_act.o(.bss.QF_priv_)
    QTimeEvt_timeEvtHead_                    0x20001890   Data          20  qf_time.o(.bss.QTimeEvt_timeEvtHead_)
    SPIUtil                                  0x200018a4   Data           4  bsp_spi.o(.bss.SPIUtil)
    tmpreg                                   0x2000235c   Data           4  bsp_system.o(.bss.tmpreg)



==============================================================================

Memory Map of the image

  Image Entry point : 0x08000369

  Load Region LR_1 (Base: 0x08000000, Size: 0x0000606c, Max: 0xffffffff, ABSOLUTE, COMPRESSED[0x00005c74])

    Execution Region ER_RO (Exec base: 0x08000000, Load base: 0x08000000, Size: 0x00005c64, Max: 0xffffffff, ABSOLUTE)

    Exec Addr    Load Addr    Size         Type   Attr      Idx    E Section Name        Object

    0x08000000   0x08000000   0x00000198   Data   RO          947    RESET               startup_stm32f411xe.o
    0x08000198   0x08000198   0x00000008   Code   RO         1032  * !!!main             c_w.l(__main.o)
    0x080001a0   0x080001a0   0x00000034   Code   RO         1247    !!!scatter          c_w.l(__scatter.o)
    0x080001d4   0x080001d4   0x0000003a   Code   RO         1245    !!dczerorl          c_w.l(__dczerorl.o)
    0x0800020e   0x0800020e   0x00000002   PAD
    0x08000210   0x08000210   0x0000001c   Code   RO         1249    !!handler_zi        c_w.l(__scatter_zi.o)
    0x0800022c   0x0800022c   0x00000002   Code   RO         1195    .ARM.Collect$$libinit$$00000000  c_w.l(libinit.o)
    0x0800022e   0x0800022e   0x00000000   Code   RO         1073    .ARM.Collect$$libinit$$00000002  c_w.l(libinit2.o)
    0x0800022e   0x0800022e   0x00000000   Code   RO         1075    .ARM.Collect$$libinit$$00000004  c_w.l(libinit2.o)
    0x0800022e   0x0800022e   0x00000000   Code   RO         1077    .ARM.Collect$$libinit$$00000006  c_w.l(libinit2.o)
    0x0800022e   0x0800022e   0x00000000   Code   RO         1080    .ARM.Collect$$libinit$$0000000C  c_w.l(libinit2.o)
    0x0800022e   0x0800022e   0x00000000   Code   RO         1082    .ARM.Collect$$libinit$$0000000E  c_w.l(libinit2.o)
    0x0800022e   0x0800022e   0x00000000   Code   RO         1084    .ARM.Collect$$libinit$$00000010  c_w.l(libinit2.o)
    0x0800022e   0x0800022e   0x00000000   Code   RO         1087    .ARM.Collect$$libinit$$00000013  c_w.l(libinit2.o)
    0x0800022e   0x0800022e   0x00000000   Code   RO         1089    .ARM.Collect$$libinit$$00000015  c_w.l(libinit2.o)
    0x0800022e   0x0800022e   0x00000000   Code   RO         1091    .ARM.Collect$$libinit$$00000017  c_w.l(libinit2.o)
    0x0800022e   0x0800022e   0x00000000   Code   RO         1093    .ARM.Collect$$libinit$$00000019  c_w.l(libinit2.o)
    0x0800022e   0x0800022e   0x00000000   Code   RO         1095    .ARM.Collect$$libinit$$0000001B  c_w.l(libinit2.o)
    0x0800022e   0x0800022e   0x00000000   Code   RO         1097    .ARM.Collect$$libinit$$0000001D  c_w.l(libinit2.o)
    0x0800022e   0x0800022e   0x00000000   Code   RO         1099    .ARM.Collect$$libinit$$0000001F  c_w.l(libinit2.o)
    0x0800022e   0x0800022e   0x00000000   Code   RO         1101    .ARM.Collect$$libinit$$00000021  c_w.l(libinit2.o)
    0x0800022e   0x0800022e   0x00000000   Code   RO         1103    .ARM.Collect$$libinit$$00000023  c_w.l(libinit2.o)
    0x0800022e   0x0800022e   0x00000000   Code   RO         1105    .ARM.Collect$$libinit$$00000025  c_w.l(libinit2.o)
    0x0800022e   0x0800022e   0x00000000   Code   RO         1107    .ARM.Collect$$libinit$$00000027  c_w.l(libinit2.o)
    0x0800022e   0x0800022e   0x00000000   Code   RO         1111    .ARM.Collect$$libinit$$0000002E  c_w.l(libinit2.o)
    0x0800022e   0x0800022e   0x00000000   Code   RO         1113    .ARM.Collect$$libinit$$00000030  c_w.l(libinit2.o)
    0x0800022e   0x0800022e   0x00000000   Code   RO         1115    .ARM.Collect$$libinit$$00000032  c_w.l(libinit2.o)
    0x0800022e   0x0800022e   0x00000000   Code   RO         1117    .ARM.Collect$$libinit$$00000034  c_w.l(libinit2.o)
    0x0800022e   0x0800022e   0x00000002   Code   RO         1118    .ARM.Collect$$libinit$$00000035  c_w.l(libinit2.o)
    0x08000230   0x08000230   0x00000002   Code   RO         1196    .ARM.Collect$$libshutdown$$00000000  c_w.l(libshutdown.o)
    0x08000232   0x08000232   0x00000000   Code   RO         1206    .ARM.Collect$$libshutdown$$00000002  c_w.l(libshutdown2.o)
    0x08000232   0x08000232   0x00000000   Code   RO         1208    .ARM.Collect$$libshutdown$$00000004  c_w.l(libshutdown2.o)
    0x08000232   0x08000232   0x00000000   Code   RO         1211    .ARM.Collect$$libshutdown$$00000007  c_w.l(libshutdown2.o)
    0x08000232   0x08000232   0x00000000   Code   RO         1214    .ARM.Collect$$libshutdown$$0000000A  c_w.l(libshutdown2.o)
    0x08000232   0x08000232   0x00000000   Code   RO         1216    .ARM.Collect$$libshutdown$$0000000C  c_w.l(libshutdown2.o)
    0x08000232   0x08000232   0x00000000   Code   RO         1219    .ARM.Collect$$libshutdown$$0000000F  c_w.l(libshutdown2.o)
    0x08000232   0x08000232   0x00000002   Code   RO         1220    .ARM.Collect$$libshutdown$$00000010  c_w.l(libshutdown2.o)
    0x08000234   0x08000234   0x00000000   Code   RO         1036    .ARM.Collect$$rtentry$$00000000  c_w.l(__rtentry.o)
    0x08000234   0x08000234   0x00000000   Code   RO         1127    .ARM.Collect$$rtentry$$00000002  c_w.l(__rtentry2.o)
    0x08000234   0x08000234   0x00000006   Code   RO         1139    .ARM.Collect$$rtentry$$00000004  c_w.l(__rtentry4.o)
    0x0800023a   0x0800023a   0x00000000   Code   RO         1129    .ARM.Collect$$rtentry$$00000009  c_w.l(__rtentry2.o)
    0x0800023a   0x0800023a   0x00000004   Code   RO         1130    .ARM.Collect$$rtentry$$0000000A  c_w.l(__rtentry2.o)
    0x0800023e   0x0800023e   0x00000000   Code   RO         1132    .ARM.Collect$$rtentry$$0000000C  c_w.l(__rtentry2.o)
    0x0800023e   0x0800023e   0x00000008   Code   RO         1133    .ARM.Collect$$rtentry$$0000000D  c_w.l(__rtentry2.o)
    0x08000246   0x08000246   0x00000002   Code   RO         1037    .ARM.Collect$$rtexit$$00000000  c_w.l(rtexit.o)
    0x08000248   0x08000248   0x00000000   Code   RO         1142    .ARM.Collect$$rtexit$$00000002  c_w.l(rtexit2.o)
    0x08000248   0x08000248   0x00000004   Code   RO         1143    .ARM.Collect$$rtexit$$00000003  c_w.l(rtexit2.o)
    0x0800024c   0x0800024c   0x00000006   Code   RO         1144    .ARM.Collect$$rtexit$$00000004  c_w.l(rtexit2.o)
    0x08000252   0x08000252   0x00000002   PAD
    0x08000254   0x08000254   0x00000114   Code   RO          568    .text               os_cpu_a.o
    0x08000368   0x08000368   0x00000040   Code   RO          948  * .text               startup_stm32f411xe.o
    0x080003a8   0x080003a8   0x00000012   Code   RO         1024    .text               c_w.l(exit.o)
    0x080003ba   0x080003ba   0x0000008a   Code   RO         1026    .text               c_w.l(rt_memcpy_v6.o)
    0x08000444   0x08000444   0x00000006   Code   RO         1030    .text               c_w.l(heapauxi.o)
    0x0800044a   0x0800044a   0x00000064   Code   RO         1068    .text               c_w.l(rt_memcpy_w.o)
    0x080004ae   0x080004ae   0x00000002   PAD
    0x080004b0   0x080004b0   0x00000008   Code   RO         1123    .text               c_w.l(libspace.o)
    0x080004b8   0x080004b8   0x0000000c   Code   RO         1167    .text               c_w.l(sys_exit.o)
    0x080004c4   0x080004c4   0x00000002   Code   RO         1171    .text               c_w.l(use_no_semi.o)
    0x080004c6   0x080004c6   0x00000000   Code   RO         1173    .text               c_w.l(indicate_semi.o)
    0x080004c6   0x080004c6   0x0000004a   Code   RO         1174    .text               c_w.l(sys_stackheap_outer.o)
    0x08000510   0x08000510   0x00000008   Code   RO          560    .text.App_TCBInitHook  app_hooks.o
    0x08000518   0x08000518   0x00000008   Code   RO          548    .text.App_TaskCreateHook  app_hooks.o
    0x08000520   0x08000520   0x00000008   Code   RO          550    .text.App_TaskDelHook  app_hooks.o
    0x08000528   0x08000528   0x00000002   Code   RO          552    .text.App_TaskIdleHook  app_hooks.o
    0x0800052a   0x0800052a   0x00000002   PAD
    0x0800052c   0x0800052c   0x00000008   Code   RO          556    .text.App_TaskReturnHook  app_hooks.o
    0x08000534   0x08000534   0x00000002   Code   RO          554    .text.App_TaskStatHook  app_hooks.o
    0x08000536   0x08000536   0x00000002   PAD
    0x08000538   0x08000538   0x00000002   Code   RO          558    .text.App_TaskSwHook  app_hooks.o
    0x0800053a   0x0800053a   0x00000002   PAD
    0x0800053c   0x0800053c   0x0000009a   Code   RO           10    .text.App_TimeTickHook  main.o
    0x080005d6   0x080005d6   0x00000002   PAD
    0x080005d8   0x080005d8   0x00000004   Code   RO           32    .text.BusFault_Handler  stm32f4xx_it.o
    0x080005dc   0x080005dc   0x00000028   Code   RO           72    .text.Central_ctor  central.o
    0x08000604   0x08000604   0x0000008e   Code   RO           74    .text.Central_initial  central.o
    0x08000692   0x08000692   0x00000002   PAD
    0x08000694   0x08000694   0x00000496   Code   RO           78    .text.Central_percentdata  central.o
    0x08000b2a   0x08000b2a   0x00000002   PAD
    0x08000b2c   0x08000b2c   0x000005e0   Code   RO           82    .text.Central_rawdata  central.o
    0x0800110c   0x0800110c   0x00000158   Code   RO           76    .text.Central_started  central.o
    0x08001264   0x08001264   0x000000fa   Code   RO          210    .text.DMA2_Stream2_IRQHandler  bsp_spi.o
    0x0800135e   0x0800135e   0x00000002   PAD
    0x08001360   0x08001360   0x00000180   Code   RO          208    .text.DMA2_Stream3_IRQHandler  bsp_spi.o
    0x080014e0   0x080014e0   0x0000004e   Code   RO            4    .text.DebounceSwitch  main.o
    0x0800152e   0x0800152e   0x00000002   PAD
    0x08001530   0x08001530   0x0000004e   Code   RO            6    .text.DebounceSwitch2  main.o
    0x0800157e   0x0800157e   0x00000002   PAD
    0x08001580   0x08001580   0x0000004e   Code   RO            8    .text.DebounceSwitch3  main.o
    0x080015ce   0x080015ce   0x00000002   PAD
    0x080015d0   0x080015d0   0x00000002   Code   RO           38    .text.DebugMon_Handler  stm32f4xx_it.o
    0x080015d2   0x080015d2   0x00000002   PAD
    0x080015d4   0x080015d4   0x00000002   Code   RO           48    .text.EXTI0_IRQHandler  stm32f4xx_it.o
    0x080015d6   0x080015d6   0x00000002   PAD
    0x080015d8   0x080015d8   0x00000002   Code   RO           44    .text.EXTI15_10_IRQHandler  stm32f4xx_it.o
    0x080015da   0x080015da   0x00000002   PAD
    0x080015dc   0x080015dc   0x00000004   Code   RO           28    .text.HardFault_Handler  stm32f4xx_it.o
    0x080015e0   0x080015e0   0x00000004   Code   RO           30    .text.MemManage_Handler  stm32f4xx_it.o
    0x080015e4   0x080015e4   0x00000004   Code   RO           26    .text.NMI_Handler   stm32f4xx_it.o
    0x080015e8   0x080015e8   0x00000030   Code   RO          238    .text.OSInit        os_core.o
    0x08001618   0x08001618   0x0000005a   Code   RO          574    .text.OSInitHookBegin  os_cpu_c.o
    0x08001672   0x08001672   0x00000002   PAD
    0x08001674   0x08001674   0x00000002   Code   RO          576    .text.OSInitHookEnd  os_cpu_c.o
    0x08001676   0x08001676   0x00000002   PAD
    0x08001678   0x08001678   0x00000034   Code   RO          252    .text.OSIntEnter    os_core.o
    0x080016ac   0x080016ac   0x000000d2   Code   RO          254    .text.OSIntExit     os_core.o
    0x0800177e   0x0800177e   0x00000002   PAD
    0x08001780   0x08001780   0x0000011a   Code   RO          438    .text.OSQCreate     os_q.o
    0x0800189a   0x0800189a   0x00000002   PAD
    0x0800189c   0x0800189c   0x000001a8   Code   RO          444    .text.OSQPend       os_q.o
    0x08001a44   0x08001a44   0x000000c8   Code   RO          448    .text.OSQPost       os_q.o
    0x08001b0c   0x08001b0c   0x00000054   Code   RO          262    .text.OSStart       os_core.o
    0x08001b60   0x08001b60   0x00000010   Code   RO          592    .text.OSTCBInitHook  os_cpu_c.o
    0x08001b70   0x08001b70   0x00000152   Code   RO          494    .text.OSTaskCreateExt  os_task.o
    0x08001cc2   0x08001cc2   0x00000002   PAD
    0x08001cc4   0x08001cc4   0x00000010   Code   RO          578    .text.OSTaskCreateHook  os_cpu_c.o
    0x08001cd4   0x08001cd4   0x00000242   Code   RO          498    .text.OSTaskDel     os_task.o
    0x08001f16   0x08001f16   0x00000002   PAD
    0x08001f18   0x08001f18   0x00000010   Code   RO          580    .text.OSTaskDelHook  os_cpu_c.o
    0x08001f28   0x08001f28   0x00000008   Code   RO          582    .text.OSTaskIdleHook  os_cpu_c.o
    0x08001f30   0x08001f30   0x000000dc   Code   RO          504    .text.OSTaskNameSet  os_task.o
    0x0800200c   0x0800200c   0x00000010   Code   RO          584    .text.OSTaskReturnHook  os_cpu_c.o
    0x0800201c   0x0800201c   0x00000008   Code   RO          586    .text.OSTaskStatHook  os_cpu_c.o
    0x08002024   0x08002024   0x0000011e   Code   RO          508    .text.OSTaskStkChk  os_task.o
    0x08002142   0x08002142   0x00000002   PAD
    0x08002144   0x08002144   0x0000010e   Code   RO          588    .text.OSTaskStkInit  os_cpu_c.o
    0x08002252   0x08002252   0x00000002   PAD
    0x08002254   0x08002254   0x00000154   Code   RO          510    .text.OSTaskSuspend  os_task.o
    0x080023a8   0x080023a8   0x00000008   Code   RO          590    .text.OSTaskSwHook  os_cpu_c.o
    0x080023b0   0x080023b0   0x000000b2   Code   RO          530    .text.OSTimeDly     os_time.o
    0x08002462   0x08002462   0x00000002   PAD
    0x08002464   0x08002464   0x0000016c   Code   RO          266    .text.OSTimeTick    os_core.o
    0x080025d0   0x080025d0   0x00000008   Code   RO          594    .text.OSTimeTickHook  os_cpu_c.o
    0x080025d8   0x080025d8   0x0000002a   Code   RO          596    .text.OS_CPU_SysTickHandler  os_cpu_c.o
    0x08002602   0x08002602   0x00000002   PAD
    0x08002604   0x08002604   0x00000002   Code   RO          270    .text.OS_Dummy      os_core.o
    0x08002606   0x08002606   0x00000002   PAD
    0x08002608   0x08002608   0x000000e4   Code   RO          272    .text.OS_EventTaskRdy  os_core.o
    0x080026ec   0x080026ec   0x0000004c   Code   RO          274    .text.OS_EventTaskRemove  os_core.o
    0x08002738   0x08002738   0x00000076   Code   RO          236    .text.OS_EventTaskRemoveMulti  os_core.o
    0x080027ae   0x080027ae   0x00000002   PAD
    0x080027b0   0x080027b0   0x00000082   Code   RO          276    .text.OS_EventTaskWait  os_core.o
    0x08002832   0x08002832   0x00000002   PAD
    0x08002834   0x08002834   0x00000038   Code   RO          278    .text.OS_EventWaitListInit  os_core.o
    0x0800286c   0x0800286c   0x000000a6   Code   RO          358    .text.OS_FlagInit   os_flag.o
    0x08002912   0x08002912   0x00000002   PAD
    0x08002914   0x08002914   0x00000058   Code   RO          350    .text.OS_FlagUnlink  os_flag.o
    0x0800296c   0x0800296c   0x000000b2   Code   RO          246    .text.OS_InitEventList  os_core.o
    0x08002a1e   0x08002a1e   0x00000002   PAD
    0x08002a20   0x08002a20   0x00000072   Code   RO          240    .text.OS_InitMisc   os_core.o
    0x08002a92   0x08002a92   0x00000002   PAD
    0x08002a94   0x08002a94   0x0000006a   Code   RO          242    .text.OS_InitRdyList  os_core.o
    0x08002afe   0x08002afe   0x00000002   PAD
    0x08002b00   0x08002b00   0x000000bc   Code   RO          244    .text.OS_InitTCBList  os_core.o
    0x08002bbc   0x08002bbc   0x0000004c   Code   RO          248    .text.OS_InitTaskIdle  os_core.o
    0x08002c08   0x08002c08   0x0000004c   Code   RO          250    .text.OS_InitTaskStat  os_core.o
    0x08002c54   0x08002c54   0x0000002c   Code   RO          280    .text.OS_MemClr     os_core.o
    0x08002c80   0x08002c80   0x0000009c   Code   RO          404    .text.OS_MemInit    os_mem.o
    0x08002d1c   0x08002d1c   0x00000090   Code   RO          456    .text.OS_QInit      os_q.o
    0x08002dac   0x08002dac   0x0000009c   Code   RO          234    .text.OS_Sched      os_core.o
    0x08002e48   0x08002e48   0x0000003c   Code   RO          256    .text.OS_SchedNew   os_core.o
    0x08002e84   0x08002e84   0x0000021a   Code   RO          290    .text.OS_TCBInit    os_core.o
    0x0800309e   0x0800309e   0x00000002   PAD
    0x080030a0   0x080030a0   0x00000036   Code   RO          284    .text.OS_TaskIdle   os_core.o
    0x080030d6   0x080030d6   0x00000002   PAD
    0x080030d8   0x080030d8   0x00000018   Code   RO          520    .text.OS_TaskReturn  os_task.o
    0x080030f0   0x080030f0   0x00000152   Code   RO          286    .text.OS_TaskStat   os_core.o
    0x08003242   0x08003242   0x00000002   PAD
    0x08003244   0x08003244   0x00000076   Code   RO          288    .text.OS_TaskStatStkChk  os_core.o
    0x080032ba   0x080032ba   0x00000002   PAD
    0x080032bc   0x080032bc   0x00000042   Code   RO          496    .text.OS_TaskStkClr  os_task.o
    0x080032fe   0x080032fe   0x00000002   PAD
    0x08003300   0x08003300   0x00000002   Code   RO           46    .text.OTG_FS_IRQHandler  stm32f4xx_it.o
    0x08003302   0x08003302   0x00000002   PAD
    0x08003304   0x08003304   0x00000028   Code   RO          812    .text.QActive_ctor  qf_qact.o
    0x0800332c   0x0800332c   0x0000004c   Code   RO          904    .text.QActive_get_  qf_port.o
    0x08003378   0x08003378   0x000000f2   Code   RO          896    .text.QActive_post_  qf_port.o
    0x0800346a   0x0800346a   0x00000002   PAD
    0x0800346c   0x0800346c   0x00000144   Code   RO          814    .text.QActive_register_  qf_qact.o
    0x080035b0   0x080035b0   0x000000fc   Code   RO          890    .text.QActive_start_  qf_port.o
    0x080036ac   0x080036ac   0x00000026   Code   RO          859    .text.QEvt_ctor     qf_time.o
    0x080036d2   0x080036d2   0x00000002   PAD
    0x080036d4   0x080036d4   0x00000010   Code   RO          740    .text.QEvt_getPoolId_  qf_dyn.o
    0x080036e4   0x080036e4   0x00000010   Code   RO          898    .text.QEvt_getPoolId_  qf_port.o
    0x080036f4   0x080036f4   0x00000010   Code   RO          742    .text.QEvt_refCtr_dec_  qf_dyn.o
    0x08003704   0x08003704   0x00000010   Code   RO          900    .text.QEvt_refCtr_inc_  qf_port.o
    0x08003714   0x08003714   0x0000002c   Code   RO          649    .text.QEvt_verify_  qep_hsm.o
    0x08003740   0x08003740   0x0000002c   Code   RO          738    .text.QEvt_verify_  qf_dyn.o
    0x0800376c   0x0800376c   0x00000030   Code   RO          696    .text.QF_bzero_     qf_act.o
    0x0800379c   0x0800379c   0x000000be   Code   RO          736    .text.QF_gc         qf_dyn.o
    0x0800385a   0x0800385a   0x00000002   PAD
    0x0800385c   0x0800385c   0x00000008   Code   RO          884    .text.QF_init       qf_port.o
    0x08003864   0x08003864   0x0000011e   Code   RO          734    .text.QF_newX_      qf_dyn.o
    0x08003982   0x08003982   0x00000002   PAD
    0x08003984   0x08003984   0x00000002   Code   RO           57    .text.QF_onStartup  app.o
    0x08003986   0x08003986   0x00000002   PAD
    0x08003988   0x08003988   0x000000a8   Code   RO          728    .text.QF_poolInit   qf_dyn.o
    0x08003a30   0x08003a30   0x0000000e   Code   RO          886    .text.QF_run        qf_port.o
    0x08003a3e   0x08003a3e   0x00000002   PAD
    0x08003a40   0x08003a40   0x00000028   Code   RO          641    .text.QHsm_ctor     qep_hsm.o
    0x08003a68   0x08003a68   0x00000230   Code   RO          645    .text.QHsm_dispatch_  qep_hsm.o
    0x08003c98   0x08003c98   0x00000178   Code   RO          643    .text.QHsm_init_    qep_hsm.o
    0x08003e10   0x08003e10   0x0000000c   Code   RO          647    .text.QHsm_top      qep_hsm.o
    0x08003e1c   0x08003e1c   0x000002a0   Code   RO          651    .text.QHsm_tran_    qep_hsm.o
    0x080040bc   0x080040bc   0x000000f8   Code   RO          760    .text.QMPool_get    qf_mem.o
    0x080041b4   0x080041b4   0x00000114   Code   RO          758    .text.QMPool_init   qf_mem.o
    0x080042c8   0x080042c8   0x0000007c   Code   RO          762    .text.QMPool_put    qf_mem.o
    0x08004344   0x08004344   0x000000b4   Code   RO          861    .text.QTimeEvt_armX  qf_time.o
    0x080043f8   0x080043f8   0x00000066   Code   RO          857    .text.QTimeEvt_ctorX  qf_time.o
    0x0800445e   0x0800445e   0x00000002   PAD
    0x08004460   0x08004460   0x0000005a   Code   RO          863    .text.QTimeEvt_disarm  qf_time.o
    0x080044ba   0x080044ba   0x00000002   PAD
    0x080044bc   0x080044bc   0x00000142   Code   RO          871    .text.QTimeEvt_tick_  qf_time.o
    0x080045fe   0x080045fe   0x00000002   PAD
    0x08004600   0x08004600   0x0000000e   Code   RO           63    .text.Q_onError     app.o
    0x0800460e   0x0800460e   0x00000002   PAD
    0x08004610   0x08004610   0x00000002   Code   RO           36    .text.SVC_Handler   stm32f4xx_it.o
    0x08004612   0x08004612   0x00000002   PAD
    0x08004614   0x08004614   0x0000012e   Code   RO          955    .text.SystemCoreClockUpdate  system_stm32f4xx.o
    0x08004742   0x08004742   0x00000002   PAD
    0x08004744   0x08004744   0x00000002   Code   RO          953    .text.SystemInit    system_stm32f4xx.o
    0x08004746   0x08004746   0x00000002   PAD
    0x08004748   0x08004748   0x00000042   Code   RO          101    .text.TickerKeeper_ctor  tickerkeeper.o
    0x0800478a   0x0800478a   0x00000002   PAD
    0x0800478c   0x0800478c   0x00000024   Code   RO           95    .text.TickerKeeper_initial  tickerkeeper.o
    0x080047b0   0x080047b0   0x00000040   Code   RO           99    .text.TickerKeeper_paused  tickerkeeper.o
    0x080047f0   0x080047f0   0x00000092   Code   RO           97    .text.TickerKeeper_running  tickerkeeper.o
    0x08004882   0x08004882   0x00000002   PAD
    0x08004884   0x08004884   0x00000004   Code   RO           34    .text.UsageFault_Handler  stm32f4xx_it.o
    0x08004888   0x08004888   0x00000026   Code   RO          186    .text.bsp_flash_init  bsp_system.o
    0x080048ae   0x080048ae   0x00000002   PAD
    0x080048b0   0x080048b0   0x00000010   Code   RO          130    .text.bsp_gpio_PA7_reset  bsp_gpio.o
    0x080048c0   0x080048c0   0x00000010   Code   RO          128    .text.bsp_gpio_PA7_set  bsp_gpio.o
    0x080048d0   0x080048d0   0x00000010   Code   RO          152    .text.bsp_gpio_PB0_get_state  bsp_gpio.o
    0x080048e0   0x080048e0   0x00000034   Code   RO          146    .text.bsp_gpio_PB0_init  bsp_gpio.o
    0x08004914   0x08004914   0x00000056   Code   RO          132    .text.bsp_gpio_PB10_init  bsp_gpio.o
    0x0800496a   0x0800496a   0x00000002   PAD
    0x0800496c   0x0800496c   0x00000012   Code   RO          136    .text.bsp_gpio_PB10_reset  bsp_gpio.o
    0x0800497e   0x0800497e   0x00000002   PAD
    0x08004980   0x08004980   0x00000012   Code   RO          134    .text.bsp_gpio_PB10_set  bsp_gpio.o
    0x08004992   0x08004992   0x00000002   PAD
    0x08004994   0x08004994   0x00000010   Code   RO          160    .text.bsp_gpio_PB1_get_state  bsp_gpio.o
    0x080049a4   0x080049a4   0x00000034   Code   RO          154    .text.bsp_gpio_PB1_init  bsp_gpio.o
    0x080049d8   0x080049d8   0x0000000e   Code   RO          124    .text.bsp_gpio_user_key_get_state  bsp_gpio.o
    0x080049e6   0x080049e6   0x00000002   PAD
    0x080049e8   0x080049e8   0x00000030   Code   RO          116    .text.bsp_gpio_user_key_init  bsp_gpio.o
    0x08004a18   0x08004a18   0x000001b8   Code   RO          169    .text.bsp_i2c_init  bsp_i2c.o
    0x08004bd0   0x08004bd0   0x00000318   Code   RO          173    .text.bsp_i2c_master_receive  bsp_i2c.o
    0x08004ee8   0x08004ee8   0x00000180   Code   RO          175    .text.bsp_i2c_master_receive_reg  bsp_i2c.o
    0x08005068   0x08005068   0x0000018c   Code   RO          171    .text.bsp_i2c_master_transfer  bsp_i2c.o
    0x080051f4   0x080051f4   0x000001da   Code   RO          188    .text.bsp_rcc_clock_init  bsp_system.o
    0x080053ce   0x080053ce   0x00000002   PAD
    0x080053d0   0x080053d0   0x00000010   Code   RO          184    .text.bsp_system_init  bsp_system.o
    0x080053e0   0x080053e0   0x0000005a   Code   RO          190    .text.bsp_systick_init  bsp_system.o
    0x0800543a   0x0800543a   0x00000002   PAD
    0x0800543c   0x0800543c   0x00000160   Code   RO           80    .text.calculateHue  central.o
    0x0800559c   0x0800559c   0x0000007a   Code   RO            2    .text.main          main.o
    0x08005616   0x08005616   0x00000002   PAD
    0x08005618   0x08005618   0x00000064   Code   RO          616    .text.sdd1306_clear_area  sdd1306.o
    0x0800567c   0x0800567c   0x00000070   Code   RO          614    .text.sdd1306_draw  sdd1306.o
    0x080056ec   0x080056ec   0x00000064   Code   RO          612    .text.sdd1306_init  sdd1306.o
    0x08005750   0x08005750   0x00000028   Code   RO          892    .text.task_function  qf_port.o
    0x08005778   0x08005778   0x000000a6   Code   RO          630    .text.veml6040_get_data_raw  veml6040.o
    0x0800581e   0x0800581e   0x00000002   PAD
    0x08005820   0x08005820   0x00000020   Code   RO          628    .text.veml6040_init  veml6040.o
    0x08005840   0x08005840   0x0000001a   Data   RO          618    .rodata..L__const.sdd1306_init.initializeCmds  sdd1306.o
    0x0800585a   0x0800585a   0x00000010   Data   RO          958    .rodata.AHBPrescTable  system_stm32f4xx.o
    0x0800586a   0x0800586a   0x00000002   PAD
    0x0800586c   0x0800586c   0x00000004   Data   RO           85    .rodata.AO_Central  central.o
    0x08005870   0x08005870   0x00000008   Data   RO          959    .rodata.APBPrescTable  system_stm32f4xx.o
    0x08005878   0x08005878   0x00000100   Data   RO          292    .rodata.OSUnMapTbl  os_core.o
    0x08005978   0x08005978   0x00000008   Data   RO          818    .rodata.QActive_ctor.vtable  qf_qact.o
    0x08005980   0x08005980   0x00000010   Data   RO          658    .rodata.QEvt_reserved_  qep_hsm.o
    0x08005990   0x08005990   0x00000008   Data   RO          659    .rodata.QHsm_ctor.vtable  qep_hsm.o
    0x08005998   0x08005998   0x0000000e   Data   RO           86    .rodata.Q_this_module_  central.o
    0x080059a6   0x080059a6   0x00000008   Data   RO          660    .rodata.Q_this_module_  qep_hsm.o
    0x080059ae   0x080059ae   0x00000007   Data   RO          750    .rodata.Q_this_module_  qf_dyn.o
    0x080059b5   0x080059b5   0x00000007   Data   RO          764    .rodata.Q_this_module_  qf_mem.o
    0x080059bc   0x080059bc   0x00000008   Data   RO          819    .rodata.Q_this_module_  qf_qact.o
    0x080059c4   0x080059c4   0x00000008   Data   RO          875    .rodata.Q_this_module_  qf_time.o
    0x080059cc   0x080059cc   0x00000008   Data   RO          906    .rodata.Q_this_module_  qf_port.o
    0x080059d4   0x080059d4   0x00000252   Data   RO           87    .rodata.font16x16   central.o
    0x08005c26   0x08005c26   0x0000001e   Data   RO          313    .rodata.str1.1      os_core.o
    0x08005c44   0x08005c44   0x00000020   Data   RO         1244    Region$$Table       anon$$obj.o


    Execution Region ER_RW (Exec base: 0x20000000, Load base: 0x08005c64, Size: 0x00000408, Max: 0xffffffff, ABSOLUTE, COMPRESSED[0x00000010])

    Exec Addr    Load Addr    Size         Type   Attr      Idx    E Section Name        Object

    0x20000000   COMPRESSED   0x00000004   Data   RW          957    .data.SystemCoreClock  system_stm32f4xx.o
    0x20000004   COMPRESSED   0x00000401   Data   RW          620    .data.zeros         sdd1306.o


    Execution Region ER_ZI (Exec base: 0x20000408, Load base: 0x08005c74, Size: 0x00002558, Max: 0xffffffff, ABSOLUTE)

    Exec Addr    Load Addr    Size         Type   Attr      Idx    E Section Name        Object

    0x20000408        -       0x00000060   Zero   RW         1124    .bss                c_w.l(libspace.o)
    0x20000468        -       0x00000002   Zero   RW           15    .bss.DebounceSwitch.State  main.o
    0x2000046a        -       0x00000002   Zero   RW           16    .bss.DebounceSwitch2.State  main.o
    0x2000046c        -       0x00000002   Zero   RW           17    .bss.DebounceSwitch3.State  main.o
    0x2000046e        -       0x00000001   Zero   RW          310    .bss.OSCPUUsage     os_core.o
    0x2000046f   0x08005c74   0x00000001   PAD
    0x20000470        -       0x00000004   Zero   RW          301    .bss.OSCtxSwCtr     os_core.o
    0x20000474        -       0x00000004   Zero   RW          315    .bss.OSEventFreeList  os_core.o
    0x20000478        -       0x000000f0   Zero   RW          316    .bss.OSEventTbl     os_core.o
    0x20000568        -       0x00000004   Zero   RW          318    .bss.OSFlagFreeList  os_core.o
    0x2000056c        -       0x00000050   Zero   RW          317    .bss.OSFlagTbl      os_core.o
    0x200005bc        -       0x00000004   Zero   RW          302    .bss.OSIdleCtr      os_core.o
    0x200005c0        -       0x00000004   Zero   RW          303    .bss.OSIdleCtrMax   os_core.o
    0x200005c4        -       0x00000004   Zero   RW          311    .bss.OSIdleCtrRun   os_core.o
    0x200005c8        -       0x00000001   Zero   RW          293    .bss.OSIntNesting   os_core.o
    0x200005c9        -       0x00000001   Zero   RW          294    .bss.OSLockNesting  os_core.o
    0x200005ca   0x08005c74   0x00000002   PAD
    0x200005cc        -       0x00000004   Zero   RW          322    .bss.OSMemFreeList  os_core.o
    0x200005d0        -       0x00000078   Zero   RW          323    .bss.OSMemTbl       os_core.o
    0x20000648        -       0x00000001   Zero   RW          300    .bss.OSPrioCur      os_core.o
    0x20000649        -       0x00000001   Zero   RW          298    .bss.OSPrioHighRdy  os_core.o
    0x2000064a   0x08005c74   0x00000002   PAD
    0x2000064c        -       0x00000004   Zero   RW          324    .bss.OSQFreeList    os_core.o
    0x20000650        -       0x00000060   Zero   RW          325    .bss.OSQTbl         os_core.o
    0x200006b0        -       0x00000001   Zero   RW          308    .bss.OSRdyGrp       os_core.o
    0x200006b1        -       0x00000008   Zero   RW          309    .bss.OSRdyTbl       os_core.o
    0x200006b9        -       0x00000001   Zero   RW          296    .bss.OSRunning      os_core.o
    0x200006ba        -       0x00000001   Zero   RW          304    .bss.OSStatRdy      os_core.o
    0x200006bb   0x08005c74   0x00000001   PAD
    0x200006bc        -       0x00000004   Zero   RW          295    .bss.OSTCBCur       os_core.o
    0x200006c0        -       0x00000004   Zero   RW          312    .bss.OSTCBFreeList  os_core.o
    0x200006c4        -       0x00000004   Zero   RW          299    .bss.OSTCBHighRdy   os_core.o
    0x200006c8        -       0x00000004   Zero   RW          307    .bss.OSTCBList      os_core.o
    0x200006cc        -       0x00000100   Zero   RW          297    .bss.OSTCBPrioTbl   os_core.o
    0x200007cc        -       0x000007e8   Zero   RW          321    .bss.OSTCBTbl       os_core.o
    0x20000fb4        -       0x00000001   Zero   RW          314    .bss.OSTaskCtr      os_core.o
    0x20000fb5   0x08005c74   0x00000003   PAD
    0x20000fb8        -       0x00000200   Zero   RW          320    .bss.OSTaskIdleStk  os_core.o
    0x200011b8        -       0x00000001   Zero   RW          326    .bss.OSTaskRegNextAvailID  os_core.o
    0x200011b9   0x08005c74   0x00000003   PAD
    0x200011bc        -       0x00000200   Zero   RW          319    .bss.OSTaskStatStk  os_core.o
    0x200013bc        -       0x00000001   Zero   RW          306    .bss.OSTickStepState  os_core.o
    0x200013bd   0x08005c74   0x00000003   PAD
    0x200013c0        -       0x00000004   Zero   RW          305    .bss.OSTime         os_core.o
    0x200013c4        -       0x00000400   Zero   RW          602    .bss.OS_CPU_ExceptStk  os_cpu_c.o
    0x200017c4        -       0x00000004   Zero   RW          603    .bss.OS_CPU_ExceptStkBase  os_cpu_c.o
    0x200017c8        -       0x00000004   Zero   RW          604    .bss.OS_KA_BASEPRI_Boundary  os_cpu_c.o
    0x200017cc        -       0x00000084   Zero   RW          701    .bss.QActive_registry_  qf_act.o
    0x20001850        -       0x00000040   Zero   RW          702    .bss.QF_priv_       qf_act.o
    0x20001890        -       0x00000014   Zero   RW          876    .bss.QTimeEvt_timeEvtHead_  qf_time.o
    0x200018a4        -       0x00000004   Zero   RW          216    .bss.SPIUtil        bsp_spi.o
    0x200018a8        -       0x0000005c   Zero   RW           84    .bss.l_central      central.o
    0x20001904        -       0x00000800   Zero   RW           13    .bss.main.centralStack  main.o
    0x20002104        -       0x00000190   Zero   RW           12    .bss.main.central_queueSto  main.o
    0x20002294        -       0x000000c8   Zero   RW           14    .bss.main.smlPoolSto  main.o
    0x2000235c        -       0x00000004   Zero   RW          192    .bss.tmpreg         bsp_system.o
    0x20002360        -       0x00000200   Zero   RW          946    HEAP                startup_stm32f411xe.o
    0x20002560        -       0x00000400   Zero   RW          945    STACK               startup_stm32f411xe.o


==============================================================================

Image component sizes


      Code (inc. data)   RO Data    RW Data    ZI Data      Debug   Object Name

        16          0          0          0          0        723   app.o
        38          0          0          0          0       2597   app_hooks.o
       352          0          0          0          0       6776   bsp_gpio.o
      2012          0          0          0          0       4049   bsp_i2c.o
       634          0          0          0          4       6186   bsp_spi.o
       618          0          0          0          4       2501   bsp_system.o
      3556         32        612          0         92       7150   central.o
       510          0          0          0       2654       3825   main.o
      3414          0        286          0       3911      12582   os_core.o
       276         32          0          0          0        368   os_cpu_a.o
       500          0          0          0       1032       4195   os_cpu_c.o
       254          0          0          0          0       7927   os_flag.o
       156          0          0          0          0       3252   os_mem.o
      1050          0          0          0          0       5708   os_q.o
      1852          0          0          0          0       8447   os_task.o
       178          0          0          0          0       3260   os_time.o
      1704          0         32          0          0       5545   qep_hsm.o
        48          0          0          0        196       3555   qf_act.o
       720          0          7          0          0       3124   qf_dyn.o
       648          0          7          0          0       2300   qf_mem.o
       664          0          8          0          0       5325   qf_port.o
       364          0         16          0          0       3372   qf_qact.o
       732          0          8          0         20       5516   qf_time.o
       312          0         26       1025          0       1337   sdd1306.o
        64         26        408          0       1536        824   startup_stm32f411xe.o
        30          0          0          0          0       1223   stm32f4xx_it.o
       304          0         24          4          0       2137   system_stm32f4xx.o
       312          0          0          0          0       4057   tickerkeeper.o
       198          0          0          0          0       1147   veml6040.o

    ----------------------------------------------------------------------
     21636         90       1468       1032       9464     119008   Object Totals
         0          0         32          0          0          0   (incl. Generated)
       120          0          2          3         15          0   (incl. Padding)

    ----------------------------------------------------------------------

      Code (inc. data)   RO Data    RW Data    ZI Data      Debug   Library Member Name

        58          0          0          0          0          0   __dczerorl.o
         8          0          0          0          0         68   __main.o
         0          0          0          0          0          0   __rtentry.o
        12          0          0          0          0          0   __rtentry2.o
         6          0          0          0          0          0   __rtentry4.o
        52          8          0          0          0          0   __scatter.o
        28          0          0          0          0          0   __scatter_zi.o
        18          0          0          0          0         80   exit.o
         6          0          0          0          0        152   heapauxi.o
         0          0          0          0          0          0   indicate_semi.o
         2          0          0          0          0          0   libinit.o
         2          0          0          0          0          0   libinit2.o
         2          0          0          0          0          0   libshutdown.o
         2          0          0          0          0          0   libshutdown2.o
         8          4          0          0         96         68   libspace.o
       138          0          0          0          0         68   rt_memcpy_v6.o
       100          0          0          0          0         80   rt_memcpy_w.o
         2          0          0          0          0          0   rtexit.o
        10          0          0          0          0          0   rtexit2.o
        12          4          0          0          0         68   sys_exit.o
        74          0          0          0          0         80   sys_stackheap_outer.o
         2          0          0          0          0         68   use_no_semi.o

    ----------------------------------------------------------------------
       548         16          0          0         96        732   Library Totals
         6          0          0          0          0          0   (incl. Padding)

    ----------------------------------------------------------------------

      Code (inc. data)   RO Data    RW Data    ZI Data      Debug   Library Name

       542         16          0          0         96        732   c_w.l

    ----------------------------------------------------------------------
       548         16          0          0         96        732   Library Totals

    ----------------------------------------------------------------------

==============================================================================


      Code (inc. data)   RO Data    RW Data    ZI Data      Debug   

     22184        106       1468       1032       9560     119008   Grand Totals
     22184        106       1468         16       9560     119008   ELF Image Totals (compressed)
     22184        106       1468         16          0          0   ROM Totals

==============================================================================

    Total RO  Size (Code + RO Data)                23652 (  23.10kB)
    Total RW  Size (RW Data + ZI Data)             10592 (  10.34kB)
    Total ROM Size (Code + RO Data + RW Data)      23668 (  23.11kB)

==============================================================================

